# SymbolsHelper-Confirmed: 6.6.1 amd64 arm64 armel armhf mips64el
libQt6Quick3DPhysics.so.6 libqt6quick3dphysics6 #MINVER#
* Build-Depends-Package: qt6-quick3dphysics-dev
 PxAddCollectionToPhysics@Qt_6 6.6.1
 PxCreateBasePhysics@Qt_6 6.6.1
 PxCreateCooking@Qt_6 6.6.1
 PxCreateFoundation@Qt_6 6.6.1
 PxGetFoundation@Qt_6 6.6.1
 PxGetPhysics@Qt_6 6.6.1
 PxGetProfilerCallback@Qt_6 6.6.1
 PxRegisterArticulations@Qt_6 6.6.1
 PxRegisterArticulationsReducedCoordinate@Qt_6 6.6.1
 PxRegisterHeightFields@Qt_6 6.6.1
 (arch=amd64 mips64el)PxSetPhysXGpuLoadHook@Qt_6 6.6.1
 PxSetProfilerCallback@Qt_6 6.6.1
 Qt_6@Qt_6 6.6.1
 Qt_6_PRIVATE_API@Qt_6_PRIVATE_API 6.6.1
 _Z36qml_register_types_QtQuick3D_Physicsv@Qt_6 6.6.1
 _ZGVZN9QMetaType21registerConverterImplI5QListI9QVector3DE9QIterableI13QMetaSequenceEEEbSt8functionIFbPKvPvEES_S_E10unregister@Qt_6 6.6.1
 _ZGVZN9QMetaType21registerConverterImplI5QListIfE9QIterableI13QMetaSequenceEEEbSt8functionIFbPKvPvEES_S_E10unregister@Qt_6 6.6.1
 _ZGVZN9QMetaType23registerMutableViewImplI5QListI9QVector3DE9QIterableI13QMetaSequenceEEEbSt8functionIFbPvS8_EES_S_E10unregister@Qt_6 6.6.1
 _ZGVZN9QMetaType23registerMutableViewImplI5QListIfE9QIterableI13QMetaSequenceEEEbSt8functionIFbPvS7_EES_S_E10unregister@Qt_6 6.6.1
 _ZN11QPlaneShape11qt_metacallEN11QMetaObject4CallEiPPv@Qt_6_PRIVATE_API 6.6.1
 _ZN11QPlaneShape11qt_metacastEPKc@Qt_6_PRIVATE_API 6.6.1
 _ZN11QPlaneShape16getPhysXGeometryEv@Qt_6_PRIVATE_API 6.6.1
 _ZN11QPlaneShape16staticMetaObjectE@Qt_6_PRIVATE_API 6.6.1
 _ZN11QPlaneShape19updatePhysXGeometryEv@Qt_6_PRIVATE_API 6.6.1
 _ZN11QPlaneShapeC1Ev@Qt_6_PRIVATE_API 6.6.1
 _ZN11QPlaneShapeC2Ev@Qt_6_PRIVATE_API 6.6.1
 _ZN11QPlaneShapeD0Ev@Qt_6_PRIVATE_API 6.6.1
 _ZN11QPlaneShapeD1Ev@Qt_6_PRIVATE_API 6.6.1
 _ZN11QPlaneShapeD2Ev@Qt_6_PRIVATE_API 6.6.1
 _ZN12QSphereShape11qt_metacallEN11QMetaObject4CallEiPPv@Qt_6_PRIVATE_API 6.6.1
 _ZN12QSphereShape11qt_metacastEPKc@Qt_6_PRIVATE_API 6.6.1
 _ZN12QSphereShape11setDiameterEf@Qt_6_PRIVATE_API 6.6.1
 _ZN12QSphereShape15diameterChangedEf@Qt_6_PRIVATE_API 6.6.1
 _ZN12QSphereShape16getPhysXGeometryEv@Qt_6_PRIVATE_API 6.6.1
 _ZN12QSphereShape16staticMetaObjectE@Qt_6_PRIVATE_API 6.6.1
 _ZN12QSphereShape19updatePhysXGeometryEv@Qt_6_PRIVATE_API 6.6.1
 _ZN12QSphereShapeC1Ev@Qt_6_PRIVATE_API 6.6.1
 _ZN12QSphereShapeC2Ev@Qt_6_PRIVATE_API 6.6.1
 _ZN12QSphereShapeD0Ev@Qt_6_PRIVATE_API 6.6.1
 _ZN12QSphereShapeD1Ev@Qt_6_PRIVATE_API 6.6.1
 _ZN12QSphereShapeD2Ev@Qt_6_PRIVATE_API 6.6.1
 _ZN12QTriggerBody10bodyExitedEP20QAbstractPhysicsNode@Qt_6_PRIVATE_API 6.6.1
 _ZN12QTriggerBody11bodyEnteredEP20QAbstractPhysicsNode@Qt_6_PRIVATE_API 6.6.1
 _ZN12QTriggerBody11qt_metacallEN11QMetaObject4CallEiPPv@Qt_6_PRIVATE_API 6.6.1
 _ZN12QTriggerBody11qt_metacastEPKc@Qt_6_PRIVATE_API 6.6.1
 _ZN12QTriggerBody16staticMetaObjectE@Qt_6_PRIVATE_API 6.6.1
 _ZN12QTriggerBody17registerCollisionEP20QAbstractPhysicsNode@Qt_6_PRIVATE_API 6.6.1
 _ZN12QTriggerBody18createPhysXBackendEv@Qt_6_PRIVATE_API 6.6.1
 _ZN12QTriggerBody19deregisterCollisionEP20QAbstractPhysicsNode@Qt_6_PRIVATE_API 6.6.1
 _ZN12QTriggerBody21collisionCountChangedEv@Qt_6_PRIVATE_API 6.6.1
 _ZN12QTriggerBodyC1Ev@Qt_6_PRIVATE_API 6.6.1
 _ZN12QTriggerBodyC2Ev@Qt_6_PRIVATE_API 6.6.1
 _ZN13QCapsuleShape11qt_metacallEN11QMetaObject4CallEiPPv@Qt_6_PRIVATE_API 6.6.1
 _ZN13QCapsuleShape11qt_metacastEPKc@Qt_6_PRIVATE_API 6.6.1
 _ZN13QCapsuleShape11setDiameterEf@Qt_6_PRIVATE_API 6.6.1
 _ZN13QCapsuleShape13heightChangedEv@Qt_6_PRIVATE_API 6.6.1
 _ZN13QCapsuleShape15diameterChangedEv@Qt_6_PRIVATE_API 6.6.1
 _ZN13QCapsuleShape16getPhysXGeometryEv@Qt_6_PRIVATE_API 6.6.1
 _ZN13QCapsuleShape16staticMetaObjectE@Qt_6_PRIVATE_API 6.6.1
 _ZN13QCapsuleShape19updatePhysXGeometryEv@Qt_6_PRIVATE_API 6.6.1
 _ZN13QCapsuleShape9setHeightEf@Qt_6_PRIVATE_API 6.6.1
 _ZN13QCapsuleShapeC1Ev@Qt_6_PRIVATE_API 6.6.1
 _ZN13QCapsuleShapeC2Ev@Qt_6_PRIVATE_API 6.6.1
 _ZN13QCapsuleShapeD0Ev@Qt_6_PRIVATE_API 6.6.1
 _ZN13QCapsuleShapeD1Ev@Qt_6_PRIVATE_API 6.6.1
 _ZN13QCapsuleShapeD2Ev@Qt_6_PRIVATE_API 6.6.1
 _ZN13QMetaSequence12MetaSequenceI5QListI9QVector3DEE5valueE@Qt_6 6.6.1
 _ZN13QMetaSequence12MetaSequenceI5QListIfEE5valueE@Qt_6 6.6.1
 _ZN13QPhysicsWorld10classBeginEv@Qt_6_PRIVATE_API 6.6.1
 _ZN13QPhysicsWorld10getCookingEv@Qt_6_PRIVATE_API 6.6.1
 _ZN13QPhysicsWorld10getPhysicsEv@Qt_6_PRIVATE_API 6.6.1
 _ZN13QPhysicsWorld10setGravityE9QVector3D@Qt_6_PRIVATE_API 6.6.1
 _ZN13QPhysicsWorld10setRunningEb@Qt_6_PRIVATE_API 6.6.1
 _ZN13QPhysicsWorld11initPhysicsEv@Qt_6_PRIVATE_API 6.6.1
 _ZN13QPhysicsWorld11qt_metacallEN11QMetaObject4CallEiPPv@Qt_6_PRIVATE_API 6.6.1
 _ZN13QPhysicsWorld11qt_metacastEPKc@Qt_6_PRIVATE_API 6.6.1
 _ZN13QPhysicsWorld11setViewportEP12QQuick3DNode@Qt_6_PRIVATE_API 6.6.1
 _ZN13QPhysicsWorld12registerNodeEP20QAbstractPhysicsNode@Qt_6_PRIVATE_API 6.6.1
 _ZN13QPhysicsWorld12sceneChangedEv@Qt_6_PRIVATE_API 6.6.1
 _ZN13QPhysicsWorld12setEnableCCDEb@Qt_6_PRIVATE_API 6.6.1
 _ZN13QPhysicsWorld13frameFinishedEf@Qt_6_PRIVATE_API 6.6.1
 _ZN13QPhysicsWorld13isNodeRemovedEP20QAbstractPhysicsNode@Qt_6_PRIVATE_API 6.6.1
 _ZN13QPhysicsWorld13simulateFrameEff@Qt_6_PRIVATE_API 6.6.1
 _ZN13QPhysicsWorld14deregisterNodeEP20QAbstractPhysicsNode@Qt_6_PRIVATE_API 6.6.1
 _ZN13QPhysicsWorld14gravityChangedE9QVector3D@Qt_6_PRIVATE_API 6.6.1
 _ZN13QPhysicsWorld14runningChangedEb@Qt_6_PRIVATE_API 6.6.1
 _ZN13QPhysicsWorld15setTypicalSpeedEf@Qt_6_PRIVATE_API 6.6.1
 _ZN13QPhysicsWorld15updateDebugDrawEv@Qt_6_PRIVATE_API 6.6.1
 _ZN13QPhysicsWorld15viewportChangedEP12QQuick3DNode@Qt_6_PRIVATE_API 6.6.1
 _ZN13QPhysicsWorld16disableDebugDrawEv@Qt_6_PRIVATE_API 6.6.1
 _ZN13QPhysicsWorld16enableCCDChangedEb@Qt_6_PRIVATE_API 6.6.1
 _ZN13QPhysicsWorld16findPhysicsNodesEv@Qt_6_PRIVATE_API 6.6.1
 _ZN13QPhysicsWorld16matchOrphanNodesEv@Qt_6_PRIVATE_API 6.6.1
 _ZN13QPhysicsWorld16setTypicalLengthEf@Qt_6_PRIVATE_API 6.6.1
 _ZN13QPhysicsWorld16staticMetaObjectE@Qt_6_PRIVATE_API 6.6.1
 _ZN13QPhysicsWorld17componentCompleteEv@Qt_6_PRIVATE_API 6.6.1
 _ZN13QPhysicsWorld17controllerManagerEv@Qt_6_PRIVATE_API 6.6.1
 _ZN13QPhysicsWorld17setDefaultDensityEf@Qt_6_PRIVATE_API 6.6.1
 _ZN13QPhysicsWorld17setForceDebugDrawEb@Qt_6_PRIVATE_API 6.6.1
 _ZN13QPhysicsWorld18setMaximumTimestepEf@Qt_6_PRIVATE_API 6.6.1
 _ZN13QPhysicsWorld18setMinimumTimestepEf@Qt_6_PRIVATE_API 6.6.1
 _ZN13QPhysicsWorld19cleanupRemovedNodesEv@Qt_6_PRIVATE_API 6.6.1
 _ZN13QPhysicsWorld19setupDebugMaterialsEP12QQuick3DNode@Qt_6_PRIVATE_API 6.6.1
 _ZN13QPhysicsWorld19typicalSpeedChangedEf@Qt_6_PRIVATE_API 6.6.1
 _ZN13QPhysicsWorld20typicalLengthChangedEf@Qt_6_PRIVATE_API 6.6.1
 _ZN13QPhysicsWorld21defaultDensityChangedEf@Qt_6_PRIVATE_API 6.6.1
 _ZN13QPhysicsWorld21forceDebugDrawChangedEb@Qt_6_PRIVATE_API 6.6.1
 _ZN13QPhysicsWorld22maximumTimestepChangedEf@Qt_6_PRIVATE_API 6.6.1
 _ZN13QPhysicsWorld22minimumTimestepChangedEf@Qt_6_PRIVATE_API 6.6.1
 _ZN13QPhysicsWorld25frameFinishedDesignStudioEv@Qt_6_PRIVATE_API 6.6.1
 _ZN13QPhysicsWorld25setHasIndividualDebugDrawEv@Qt_6_PRIVATE_API 6.6.1
 _ZN13QPhysicsWorld27updateDebugDrawDesignStudioEv@Qt_6_PRIVATE_API 6.6.1
 _ZN13QPhysicsWorld8getWorldEP12QQuick3DNode@Qt_6_PRIVATE_API 6.6.1
 _ZN13QPhysicsWorld8setSceneEP12QQuick3DNode@Qt_6_PRIVATE_API 6.6.1
 _ZN13QPhysicsWorld9frameDoneEf@Qt_6_PRIVATE_API 6.6.1
 _ZN13QPhysicsWorldC1EP7QObject@Qt_6_PRIVATE_API 6.6.1
 _ZN13QPhysicsWorldC2EP7QObject@Qt_6_PRIVATE_API 6.6.1
 _ZN13QPhysicsWorldD0Ev@Qt_6_PRIVATE_API 6.6.1
 _ZN13QPhysicsWorldD1Ev@Qt_6_PRIVATE_API 6.6.1
 _ZN13QPhysicsWorldD2Ev@Qt_6_PRIVATE_API 6.6.1
 _ZN15MeshRayCollider10collideOBBERKN5physx2Gu3BoxEbPKNS1_17RTreeTriangleMeshERNS1_15MeshHitCallbackINS0_12PxRaycastHitEEEb@Qt_6 6.6.1
 (optional=templinst)_ZN15MeshRayCollider7collideILi0ELi0EEEvRKN5physx6PxVec3ES4_fbPKNS1_2Gu17RTreeTriangleMeshERNS5_15MeshHitCallbackINS1_12PxRaycastHitEEEPS3_@Qt_6 6.6.1
 (optional=templinst)_ZN15MeshRayCollider7collideILi0ELi1EEEvRKN5physx6PxVec3ES4_fbPKNS1_2Gu17RTreeTriangleMeshERNS5_15MeshHitCallbackINS1_12PxRaycastHitEEEPS3_@Qt_6 6.6.1
 (optional=templinst)_ZN15MeshRayCollider7collideILi1ELi0EEEvRKN5physx6PxVec3ES4_fbPKNS1_2Gu17RTreeTriangleMeshERNS5_15MeshHitCallbackINS1_12PxRaycastHitEEEPS3_@Qt_6 6.6.1
 (optional=templinst)_ZN15MeshRayCollider7collideILi1ELi1EEEvRKN5physx6PxVec3ES4_fbPKNS1_2Gu17RTreeTriangleMeshERNS5_15MeshHitCallbackINS1_12PxRaycastHitEEEPS3_@Qt_6 6.6.1
 _ZN16QConvexMeshShape11qt_metacallEN11QMetaObject4CallEiPPv@Qt_6_PRIVATE_API 6.6.1
 _ZN16QConvexMeshShape11qt_metacastEPKc@Qt_6_PRIVATE_API 6.6.1
 _ZN16QConvexMeshShape13sourceChangedEv@Qt_6_PRIVATE_API 6.6.1
 _ZN16QConvexMeshShape16getPhysXGeometryEv@Qt_6_PRIVATE_API 6.6.1
 _ZN16QConvexMeshShape16staticMetaObjectE@Qt_6_PRIVATE_API 6.6.1
 _ZN16QConvexMeshShape19updatePhysXGeometryEv@Qt_6_PRIVATE_API 6.6.1
 _ZN16QConvexMeshShape9setSourceERK4QUrl@Qt_6_PRIVATE_API 6.6.1
 _ZN16QConvexMeshShapeC1Ev@Qt_6_PRIVATE_API 6.6.1
 _ZN16QConvexMeshShapeC2Ev@Qt_6_PRIVATE_API 6.6.1
 _ZN16QConvexMeshShapeD0Ev@Qt_6_PRIVATE_API 6.6.1
 _ZN16QConvexMeshShapeD1Ev@Qt_6_PRIVATE_API 6.6.1
 _ZN16QConvexMeshShapeD2Ev@Qt_6_PRIVATE_API 6.6.1
 _ZN16QPhysicsMaterial11qt_metacallEN11QMetaObject4CallEiPPv@Qt_6_PRIVATE_API 6.6.1
 _ZN16QPhysicsMaterial11qt_metacastEPKc@Qt_6_PRIVATE_API 6.6.1
 _ZN16QPhysicsMaterial14setRestitutionEf@Qt_6_PRIVATE_API 6.6.1
 _ZN16QPhysicsMaterial16staticMetaObjectE@Qt_6_PRIVATE_API 6.6.1
 _ZN16QPhysicsMaterial17setStaticFrictionEf@Qt_6_PRIVATE_API 6.6.1
 _ZN16QPhysicsMaterial18restitutionChangedEv@Qt_6_PRIVATE_API 6.6.1
 _ZN16QPhysicsMaterial18setDynamicFrictionEf@Qt_6_PRIVATE_API 6.6.1
 _ZN16QPhysicsMaterial21staticFrictionChangedEv@Qt_6_PRIVATE_API 6.6.1
 _ZN16QPhysicsMaterial22dynamicFrictionChangedEv@Qt_6_PRIVATE_API 6.6.1
 _ZN16QPhysicsMaterialC1EP7QObject@Qt_6_PRIVATE_API 6.6.1
 _ZN16QPhysicsMaterialC2EP7QObject@Qt_6_PRIVATE_API 6.6.1
 _ZN16QStaticRigidBody11qt_metacallEN11QMetaObject4CallEiPPv@Qt_6_PRIVATE_API 6.6.1
 _ZN16QStaticRigidBody11qt_metacastEPKc@Qt_6_PRIVATE_API 6.6.1
 _ZN16QStaticRigidBody16staticMetaObjectE@Qt_6_PRIVATE_API 6.6.1
 _ZN16QStaticRigidBody18createPhysXBackendEv@Qt_6_PRIVATE_API 6.6.1
 _ZN16QStaticRigidBodyC1Ev@Qt_6_PRIVATE_API 6.6.1
 _ZN16QStaticRigidBodyC2Ev@Qt_6_PRIVATE_API 6.6.1
 _ZN17QDynamicRigidBody10applyForceERK9QVector3DS2_@Qt_6_PRIVATE_API 6.6.1
 _ZN17QDynamicRigidBody10setDensityEf@Qt_6_PRIVATE_API 6.6.1
 _ZN17QDynamicRigidBody11applyTorqueERK9QVector3D@Qt_6_PRIVATE_API 6.6.1
 _ZN17QDynamicRigidBody11massChangedEf@Qt_6_PRIVATE_API 6.6.1
 _ZN17QDynamicRigidBody11qt_metacallEN11QMetaObject4CallEiPPv@Qt_6_PRIVATE_API 6.6.1
 _ZN17QDynamicRigidBody11qt_metacastEPKc@Qt_6_PRIVATE_API 6.6.1
 _ZN17QDynamicRigidBody11setMassModeENS_8MassModeE@Qt_6_PRIVATE_API 6.6.1
 _ZN17QDynamicRigidBody12applyImpulseERK9QVector3DS2_@Qt_6_PRIVATE_API 6.6.1
 _ZN17QDynamicRigidBody12commandQueueEv@Qt_6_PRIVATE_API 6.6.1
 _ZN17QDynamicRigidBody14densityChangedEf@Qt_6_PRIVATE_API 6.6.1
 _ZN17QDynamicRigidBody14setIsKinematicEb@Qt_6_PRIVATE_API 6.6.1
 _ZN17QDynamicRigidBody15massModeChangedEv@Qt_6_PRIVATE_API 6.6.1
 _ZN17QDynamicRigidBody16setInertiaMatrixERK5QListIfE@Qt_6_PRIVATE_API 6.6.1
 _ZN17QDynamicRigidBody16setInertiaTensorERK9QVector3D@Qt_6_PRIVATE_API 6.6.1
 _ZN17QDynamicRigidBody16staticMetaObjectE@Qt_6_PRIVATE_API 6.6.1
 _ZN17QDynamicRigidBody17applyCentralForceERK9QVector3D@Qt_6_PRIVATE_API 6.6.1
 _ZN17QDynamicRigidBody17setGravityEnabledEb@Qt_6_PRIVATE_API 6.6.1
 _ZN17QDynamicRigidBody17setKinematicPivotERK9QVector3D@Qt_6_PRIVATE_API 6.6.1
 _ZN17QDynamicRigidBody17setLinearAxisLockENS_8AxisLockE@Qt_6_PRIVATE_API 6.6.1
 _ZN17QDynamicRigidBody17setLinearVelocityERK9QVector3D@Qt_6_PRIVATE_API 6.6.1
 _ZN17QDynamicRigidBody18applyTorqueImpulseERK9QVector3D@Qt_6_PRIVATE_API 6.6.1
 _ZN17QDynamicRigidBody18createPhysXBackendEv@Qt_6_PRIVATE_API 6.6.1
 _ZN17QDynamicRigidBody18isKinematicChangedEb@Qt_6_PRIVATE_API 6.6.1
 _ZN17QDynamicRigidBody18setAngularAxisLockENS_8AxisLockE@Qt_6_PRIVATE_API 6.6.1
 _ZN17QDynamicRigidBody18setAngularVelocityERK9QVector3D@Qt_6_PRIVATE_API 6.6.1
 _ZN17QDynamicRigidBody19applyCentralImpulseERK9QVector3D@Qt_6_PRIVATE_API 6.6.1
 _ZN17QDynamicRigidBody20inertiaMatrixChangedEv@Qt_6_PRIVATE_API 6.6.1
 _ZN17QDynamicRigidBody20inertiaTensorChangedEv@Qt_6_PRIVATE_API 6.6.1
 _ZN17QDynamicRigidBody20setKinematicPositionERK9QVector3D@Qt_6_PRIVATE_API 6.6.1
 _ZN17QDynamicRigidBody20setKinematicRotationERK11QQuaternion@Qt_6_PRIVATE_API 6.6.1
 _ZN17QDynamicRigidBody20updateDefaultDensityEf@Qt_6_PRIVATE_API 6.6.1
 _ZN17QDynamicRigidBody21gravityEnabledChangedEv@Qt_6_PRIVATE_API 6.6.1
 _ZN17QDynamicRigidBody21kinematicPivotChangedERK9QVector3D@Qt_6_PRIVATE_API 6.6.1
 _ZN17QDynamicRigidBody21linearAxisLockChangedEv@Qt_6_PRIVATE_API 6.6.1
 _ZN17QDynamicRigidBody22angularAxisLockChangedEv@Qt_6_PRIVATE_API 6.6.1
 _ZN17QDynamicRigidBody23setCenterOfMassPositionERK9QVector3D@Qt_6_PRIVATE_API 6.6.1
 _ZN17QDynamicRigidBody23setCenterOfMassRotationERK11QQuaternion@Qt_6_PRIVATE_API 6.6.1
 _ZN17QDynamicRigidBody24kinematicPositionChangedERK9QVector3D@Qt_6_PRIVATE_API 6.6.1
 _ZN17QDynamicRigidBody24kinematicRotationChangedERK11QQuaternion@Qt_6_PRIVATE_API 6.6.1
 _ZN17QDynamicRigidBody25setKinematicEulerRotationERK9QVector3D@Qt_6_PRIVATE_API 6.6.1
 _ZN17QDynamicRigidBody27centerOfMassPositionChangedEv@Qt_6_PRIVATE_API 6.6.1
 _ZN17QDynamicRigidBody27centerOfMassRotationChangedEv@Qt_6_PRIVATE_API 6.6.1
 _ZN17QDynamicRigidBody29kinematicEulerRotationChangedERK9QVector3D@Qt_6_PRIVATE_API 6.6.1
 _ZN17QDynamicRigidBody5resetERK9QVector3DS2_@Qt_6_PRIVATE_API 6.6.1
 _ZN17QDynamicRigidBody7setMassEf@Qt_6_PRIVATE_API 6.6.1
 _ZN17QDynamicRigidBodyC1Ev@Qt_6_PRIVATE_API 6.6.1
 _ZN17QDynamicRigidBodyC2Ev@Qt_6_PRIVATE_API 6.6.1
 _ZN17QDynamicRigidBodyD0Ev@Qt_6_PRIVATE_API 6.6.1
 _ZN17QDynamicRigidBodyD1Ev@Qt_6_PRIVATE_API 6.6.1
 _ZN17QDynamicRigidBodyD2Ev@Qt_6_PRIVATE_API 6.6.1
 _ZN17QHeightFieldShape10setExtentsERK9QVector3D@Qt_6_PRIVATE_API 6.6.1
 _ZN17QHeightFieldShape11qt_metacallEN11QMetaObject4CallEiPPv@Qt_6_PRIVATE_API 6.6.1
 _ZN17QHeightFieldShape11qt_metacastEPKc@Qt_6_PRIVATE_API 6.6.1
 _ZN17QHeightFieldShape13sourceChangedEv@Qt_6_PRIVATE_API 6.6.1
 _ZN17QHeightFieldShape13updateExtentsEv@Qt_6_PRIVATE_API 6.6.1
 _ZN17QHeightFieldShape14extentsChangedEv@Qt_6_PRIVATE_API 6.6.1
 _ZN17QHeightFieldShape16getPhysXGeometryEv@Qt_6_PRIVATE_API 6.6.1
 _ZN17QHeightFieldShape16staticMetaObjectE@Qt_6_PRIVATE_API 6.6.1
 _ZN17QHeightFieldShape19updatePhysXGeometryEv@Qt_6_PRIVATE_API 6.6.1
 _ZN17QHeightFieldShape9setSourceERK4QUrl@Qt_6_PRIVATE_API 6.6.1
 _ZN17QHeightFieldShapeC1Ev@Qt_6_PRIVATE_API 6.6.1
 _ZN17QHeightFieldShapeC2Ev@Qt_6_PRIVATE_API 6.6.1
 _ZN17QHeightFieldShapeD0Ev@Qt_6_PRIVATE_API 6.6.1
 _ZN17QHeightFieldShapeD1Ev@Qt_6_PRIVATE_API 6.6.1
 _ZN17QHeightFieldShapeD2Ev@Qt_6_PRIVATE_API 6.6.1
 _ZN18QTriangleMeshShape11qt_metacallEN11QMetaObject4CallEiPPv@Qt_6_PRIVATE_API 6.6.1
 _ZN18QTriangleMeshShape11qt_metacastEPKc@Qt_6_PRIVATE_API 6.6.1
 _ZN18QTriangleMeshShape13sourceChangedEv@Qt_6_PRIVATE_API 6.6.1
 _ZN18QTriangleMeshShape16getPhysXGeometryEv@Qt_6_PRIVATE_API 6.6.1
 _ZN18QTriangleMeshShape16staticMetaObjectE@Qt_6_PRIVATE_API 6.6.1
 _ZN18QTriangleMeshShape19updatePhysXGeometryEv@Qt_6_PRIVATE_API 6.6.1
 _ZN18QTriangleMeshShape9setSourceERK4QUrl@Qt_6_PRIVATE_API 6.6.1
 _ZN18QTriangleMeshShapeC1Ev@Qt_6_PRIVATE_API 6.6.1
 _ZN18QTriangleMeshShapeC2Ev@Qt_6_PRIVATE_API 6.6.1
 _ZN18QTriangleMeshShapeD0Ev@Qt_6_PRIVATE_API 6.6.1
 _ZN18QTriangleMeshShapeD1Ev@Qt_6_PRIVATE_API 6.6.1
 _ZN18QTriangleMeshShapeD2Ev@Qt_6_PRIVATE_API 6.6.1
 (subst)_ZN20QAbstractPhysicsNode10qmlShapeAtEP16QQmlListPropertyI23QAbstractCollisionShapeE{qptrdiff}@Qt_6_PRIVATE_API 6.6.1
 _ZN20QAbstractPhysicsNode11bodyContactEPS_RK5QListI9QVector3DES5_S5_@Qt_6_PRIVATE_API 6.6.1
 _ZN20QAbstractPhysicsNode11qt_metacallEN11QMetaObject4CallEiPPv@Qt_6_PRIVATE_API 6.6.1
 _ZN20QAbstractPhysicsNode11qt_metacastEPKc@Qt_6_PRIVATE_API 6.6.1
 _ZN20QAbstractPhysicsNode13qmlShapeCountEP16QQmlListPropertyI23QAbstractCollisionShapeE@Qt_6_PRIVATE_API 6.6.1
 _ZN20QAbstractPhysicsNode14qmlAppendShapeEP16QQmlListPropertyI23QAbstractCollisionShapeEPS1_@Qt_6_PRIVATE_API 6.6.1
 _ZN20QAbstractPhysicsNode14qmlClearShapesEP16QQmlListPropertyI23QAbstractCollisionShapeE@Qt_6_PRIVATE_API 6.6.1
 _ZN20QAbstractPhysicsNode15collisionShapesEv@Qt_6_PRIVATE_API 6.6.1
 _ZN20QAbstractPhysicsNode15registerContactEPS_RK5QListI9QVector3DES5_S5_@Qt_6_PRIVATE_API 6.6.1
 _ZN20QAbstractPhysicsNode16onShapeDestroyedEP7QObject@Qt_6_PRIVATE_API 6.6.1
 _ZN20QAbstractPhysicsNode16staticMetaObjectE@Qt_6_PRIVATE_API 6.6.1
 _ZN20QAbstractPhysicsNode17exitedTriggerBodyEPS_@Qt_6_PRIVATE_API 6.6.1
 _ZN20QAbstractPhysicsNode18enteredTriggerBodyEPS_@Qt_6_PRIVATE_API 6.6.1
 _ZN20QAbstractPhysicsNode19onShapeNeedsRebuildEP7QObject@Qt_6_PRIVATE_API 6.6.1
 _ZN20QAbstractPhysicsNode21setSendContactReportsEb@Qt_6_PRIVATE_API 6.6.1
 _ZN20QAbstractPhysicsNode21setSendTriggerReportsEb@Qt_6_PRIVATE_API 6.6.1
 _ZN20QAbstractPhysicsNode24setReceiveContactReportsEb@Qt_6_PRIVATE_API 6.6.1
 _ZN20QAbstractPhysicsNode24setReceiveTriggerReportsEb@Qt_6_PRIVATE_API 6.6.1
 _ZN20QAbstractPhysicsNode25sendContactReportsChangedEf@Qt_6_PRIVATE_API 6.6.1
 _ZN20QAbstractPhysicsNode25sendTriggerReportsChangedEf@Qt_6_PRIVATE_API 6.6.1
 _ZN20QAbstractPhysicsNode26updateFromPhysicsTransformERKN5physx11PxTransformE@Qt_6_PRIVATE_API 6.6.1
 _ZN20QAbstractPhysicsNode28receiveContactReportsChangedEf@Qt_6_PRIVATE_API 6.6.1
 _ZN20QAbstractPhysicsNode28receiveTriggerReportsChangedEf@Qt_6_PRIVATE_API 6.6.1
 _ZN20QAbstractPhysicsNodeC1Ev@Qt_6_PRIVATE_API 6.6.1
 _ZN20QAbstractPhysicsNodeC2Ev@Qt_6_PRIVATE_API 6.6.1
 _ZN20QAbstractPhysicsNodeD0Ev@Qt_6_PRIVATE_API 6.6.1
 _ZN20QAbstractPhysicsNodeD1Ev@Qt_6_PRIVATE_API 6.6.1
 _ZN20QAbstractPhysicsNodeD2Ev@Qt_6_PRIVATE_API 6.6.1
 _ZN20QCharacterController10setGravityERK9QVector3D@Qt_6_PRIVATE_API 6.6.1
 _ZN20QCharacterController11getTeleportER9QVector3D@Qt_6_PRIVATE_API 6.6.1
 _ZN20QCharacterController11qt_metacallEN11QMetaObject4CallEiPPv@Qt_6_PRIVATE_API 6.6.1
 _ZN20QCharacterController11qt_metacastEPKc@Qt_6_PRIVATE_API 6.6.1
 _ZN20QCharacterController11setMovementERK9QVector3D@Qt_6_PRIVATE_API 6.6.1
 _ZN20QCharacterController13setCollisionsERK6QFlagsINS_9CollisionEE@Qt_6_PRIVATE_API 6.6.1
 _ZN20QCharacterController14gravityChangedEv@Qt_6_PRIVATE_API 6.6.1
 _ZN20QCharacterController15getDisplacementEf@Qt_6_PRIVATE_API 6.6.1
 _ZN20QCharacterController15movementChangedEv@Qt_6_PRIVATE_API 6.6.1
 _ZN20QCharacterController16setMidAirControlEb@Qt_6_PRIVATE_API 6.6.1
 _ZN20QCharacterController16staticMetaObjectE@Qt_6_PRIVATE_API 6.6.1
 _ZN20QCharacterController17collisionsChangedEv@Qt_6_PRIVATE_API 6.6.1
 _ZN20QCharacterController18createPhysXBackendEv@Qt_6_PRIVATE_API 6.6.1
 _ZN20QCharacterController20midAirControlChangedEv@Qt_6_PRIVATE_API 6.6.1
 _ZN20QCharacterController25setEnableShapeHitCallbackEb@Qt_6_PRIVATE_API 6.6.1
 _ZN20QCharacterController29enableShapeHitCallbackChangedEv@Qt_6_PRIVATE_API 6.6.1
 _ZN20QCharacterController8shapeHitEP20QAbstractPhysicsNodeRK9QVector3DS4_S4_@Qt_6_PRIVATE_API 6.6.1
 _ZN20QCharacterController8teleportERK9QVector3D@Qt_6_PRIVATE_API 6.6.1
 _ZN20QCharacterControllerC1Ev@Qt_6_PRIVATE_API 6.6.1
 _ZN20QCharacterControllerC2Ev@Qt_6_PRIVATE_API 6.6.1
 _ZN23QAbstractCollisionShape11qt_metacallEN11QMetaObject4CallEiPPv@Qt_6_PRIVATE_API 6.6.1
 _ZN23QAbstractCollisionShape11qt_metacastEPKc@Qt_6_PRIVATE_API 6.6.1
 _ZN23QAbstractCollisionShape12needsRebuildEP7QObject@Qt_6_PRIVATE_API 6.6.1
 _ZN23QAbstractCollisionShape16staticMetaObjectE@Qt_6_PRIVATE_API 6.6.1
 _ZN23QAbstractCollisionShape17handleScaleChangeEv@Qt_6_PRIVATE_API 6.6.1
 _ZN23QAbstractCollisionShape18setEnableDebugDrawEb@Qt_6_PRIVATE_API 6.6.1
 _ZN23QAbstractCollisionShape22enableDebugDrawChangedEb@Qt_6_PRIVATE_API 6.6.1
 _ZN23QAbstractCollisionShapeC1EP12QQuick3DNode@Qt_6_PRIVATE_API 6.6.1
 _ZN23QAbstractCollisionShapeC2EP12QQuick3DNode@Qt_6_PRIVATE_API 6.6.1
 _ZN23QAbstractCollisionShapeD0Ev@Qt_6_PRIVATE_API 6.6.1
 _ZN23QAbstractCollisionShapeD1Ev@Qt_6_PRIVATE_API 6.6.1
 _ZN23QAbstractCollisionShapeD2Ev@Qt_6_PRIVATE_API 6.6.1
 _ZN5physx10writeDwordEjbRNS_14PxOutputStreamE@Qt_6 6.6.1
 _ZN5physx10writeFloatEfbRNS_14PxOutputStreamE@Qt_6 6.6.1
 _ZN5physx11PxMeshQuery11getTriangleERKNS_21PxHeightFieldGeometryERKNS_11PxTransformEjRNS_10PxTriangleEPjS9_@Qt_6 6.6.1
 _ZN5physx11PxMeshQuery11getTriangleERKNS_22PxTriangleMeshGeometryERKNS_11PxTransformEjRNS_10PxTriangleEPjS9_@Qt_6 6.6.1
 _ZN5physx11PxMeshQuery22findOverlapHeightFieldERKNS_10PxGeometryERKNS_11PxTransformERKNS_21PxHeightFieldGeometryES6_PjjjRb@Qt_6 6.6.1
 _ZN5physx11PxMeshQuery23findOverlapTriangleMeshERKNS_10PxGeometryERKNS_11PxTransformERKNS_22PxTriangleMeshGeometryES6_PjjjRb@Qt_6 6.6.1
 _ZN5physx11PxMeshQuery5sweepERKNS_6PxVec3EfRKNS_10PxGeometryERKNS_11PxTransformEjPKNS_10PxTriangleERNS_10PxSweepHitENS_7PxFlagsINS_9PxHitFlag4EnumEtEEPKjfb@Qt_6 6.6.1
 _ZN5physx11readIndicesEjjPjRNS_13PxInputStreamEb@Qt_6 6.6.1
 _ZN5physx11writeHeaderEaaaajbRNS_14PxOutputStreamE@Qt_6 6.6.1
 _ZN5physx12storeIndicesEjjPKjRNS_14PxOutputStreamEb@Qt_6 6.6.1
 _ZN5physx13BigConvexData13CreateOffsetsEv@Qt_6 6.6.1
 _ZN5physx13BigConvexData15exportExtraDataERNS_22PxSerializationContextE@Qt_6 6.6.1
 _ZN5physx13BigConvexData15importExtraDataERNS_24PxDeserializationContextE@Qt_6 6.6.1
 _ZN5physx13BigConvexData4LoadERNS_13PxInputStreamE@Qt_6 6.6.1
 _ZN5physx13BigConvexData5VLoadERNS_13PxInputStreamE@Qt_6 6.6.1
 _ZN5physx13BigConvexDataC1Ev@Qt_6 6.6.1
 _ZN5physx13BigConvexDataC2Ev@Qt_6 6.6.1
 _ZN5physx13BigConvexDataD1Ev@Qt_6 6.6.1
 _ZN5physx13BigConvexDataD2Ev@Qt_6 6.6.1
 _ZN5physx13GuMeshFactory13addConvexMeshEPNS_2Gu10ConvexMeshEb@Qt_6 6.6.1
 _ZN5physx13GuMeshFactory14addHeightFieldEPNS_2Gu11HeightFieldEb@Qt_6 6.6.1
 _ZN5physx13GuMeshFactory15addBVHStructureEPNS_2Gu12BVHStructureEb@Qt_6 6.6.1
 _ZN5physx13GuMeshFactory15addTriangleMeshEPNS_2Gu12TriangleMeshEb@Qt_6 6.6.1
 _ZN5physx13GuMeshFactory16createConvexMeshEPv@Qt_6 6.6.1
 _ZN5physx13GuMeshFactory16createConvexMeshERNS_13PxInputStreamE@Qt_6 6.6.1
 _ZN5physx13GuMeshFactory16createConvexMeshERNS_2Gu18ConvexHullInitDataE@Qt_6 6.6.1
 _ZN5physx13GuMeshFactory16removeConvexMeshERNS_12PxConvexMeshE@Qt_6 6.6.1
 _ZN5physx13GuMeshFactory17createHeightFieldEPv@Qt_6 6.6.1
 _ZN5physx13GuMeshFactory17createHeightFieldERNS_13PxInputStreamE@Qt_6 6.6.1
 _ZN5physx13GuMeshFactory17removeHeightFieldERNS_13PxHeightFieldE@Qt_6 6.6.1
 _ZN5physx13GuMeshFactory18addFactoryListenerERNS_21GuMeshFactoryListenerE@Qt_6 6.6.1
 _ZN5physx13GuMeshFactory18createBVHStructureEPv@Qt_6 6.6.1
 _ZN5physx13GuMeshFactory18createBVHStructureERNS_13PxInputStreamE@Qt_6 6.6.1
 _ZN5physx13GuMeshFactory18createBVHStructureERNS_2Gu16BVHStructureDataE@Qt_6 6.6.1
 _ZN5physx13GuMeshFactory18createTriangleMeshEPv@Qt_6 6.6.1
 _ZN5physx13GuMeshFactory18createTriangleMeshERNS_13PxInputStreamE@Qt_6 6.6.1
 _ZN5physx13GuMeshFactory18createTriangleMeshERNS_2Gu16TriangleMeshDataE@Qt_6 6.6.1
 _ZN5physx13GuMeshFactory18removeBVHStructureERNS_14PxBVHStructureE@Qt_6 6.6.1
 _ZN5physx13GuMeshFactory18removeTriangleMeshERNS_14PxTriangleMeshE@Qt_6 6.6.1
 _ZN5physx13GuMeshFactory21notifyFactoryListenerEPKNS_6PxBaseEt@Qt_6 6.6.1
 _ZN5physx13GuMeshFactory21removeFactoryListenerERNS_21GuMeshFactoryListenerE@Qt_6 6.6.1
 _ZN5physx13GuMeshFactory7releaseEv@Qt_6 6.6.1
 _ZN5physx13GuMeshFactoryC1Ev@Qt_6 6.6.1
 _ZN5physx13GuMeshFactoryC2Ev@Qt_6 6.6.1
 _ZN5physx13GuMeshFactoryD0Ev@Qt_6 6.6.1
 _ZN5physx13GuMeshFactoryD1Ev@Qt_6 6.6.1
 _ZN5physx13GuMeshFactoryD2Ev@Qt_6 6.6.1
 _ZN5physx13PxDiagonalizeERKNS_7PxMat33ERNS_6PxQuatE@Qt_6 6.6.1
 _ZN5physx14boxVertexTableE@Qt_6 6.6.1
 _ZN5physx15PxGeometryQuery13pointDistanceERKNS_6PxVec3ERKNS_10PxGeometryERKNS_11PxTransformEPS1_@Qt_6 6.6.1
 _ZN5physx15PxGeometryQuery14getWorldBoundsERKNS_10PxGeometryERKNS_11PxTransformEf@Qt_6 6.6.1
 _ZN5physx15PxGeometryQuery18computePenetrationERNS_6PxVec3ERfRKNS_10PxGeometryERKNS_11PxTransformES6_S9_@Qt_6 6.6.1
 _ZN5physx15PxGeometryQuery5sweepERKNS_6PxVec3EfRKNS_10PxGeometryERKNS_11PxTransformES6_S9_RNS_10PxSweepHitENS_7PxFlagsINS_9PxHitFlag4EnumEtEEf@Qt_6 6.6.1
 _ZN5physx15PxGeometryQuery7isValidERKNS_10PxGeometryE@Qt_6 6.6.1
 _ZN5physx15PxGeometryQuery7overlapERKNS_10PxGeometryERKNS_11PxTransformES3_S6_@Qt_6 6.6.1
 _ZN5physx15PxGeometryQuery7raycastERKNS_6PxVec3ES3_RKNS_10PxGeometryERKNS_11PxTransformEfNS_7PxFlagsINS_9PxHitFlag4EnumEtEEjPNS_12PxRaycastHitE@Qt_6 6.6.1
 _ZN5physx15computeMaxIndexEPKjj@Qt_6 6.6.1
 _ZN5physx15computeMaxIndexEPKtj@Qt_6 6.6.1
 _ZN5physx15writeWordBufferEPKtjbRNS_14PxOutputStreamE@Qt_6 6.6.1
 _ZN5physx16writeFloatBufferEPKfjbRNS_14PxOutputStreamE@Qt_6 6.6.1
 _ZN5physx18PxShortestRotationERKNS_6PxVec3ES2_@Qt_6 6.6.1
 _ZN5physx20getVertexEdgeIndicesERKNS_2Gu11HeightFieldEjjjPNS_8EdgeDataE@Qt_6 6.6.1
 _ZN5physx22PxTransformFromSegmentERKNS_6PxVec3ES2_Pf@Qt_6 6.6.1
 _ZN5physx22getEdgeTriangleIndicesERKNS_2Gu11HeightFieldERKNS_8EdgeDataEPj@Qt_6 6.6.1
 _ZN5physx28PxTransformFromPlaneEquationERKNS_7PxPlaneE@Qt_6 6.6.1
 _ZN5physx2Cm12RenderOutput13outputCapsuleEffRKNS_7PxMat44E@Qt_6 6.6.1
 _ZN5physx2Cm12RenderOutputlsENS1_9PrimitiveE@Qt_6 6.6.1
 _ZN5physx2Cm12RenderOutputlsENS_6PxVec3E@Qt_6 6.6.1
 _ZN5physx2Cm12RenderOutputlsERKNS0_9DebugTextE@Qt_6 6.6.1
 _ZN5physx2Cm12RenderOutputlsERKNS_11PxTransformE@Qt_6 6.6.1
 _ZN5physx2Cm12RenderOutputlsERKNS_7PxMat44E@Qt_6 6.6.1
 _ZN5physx2Cm12RenderOutputlsEj@Qt_6 6.6.1
 _ZN5physx2Cm17RadixSortBuffered4SortEPKfj@Qt_6 6.6.1
 _ZN5physx2Cm17RadixSortBuffered4SortEPKjjNS0_9RadixHintE@Qt_6 6.6.1
 _ZN5physx2Cm17RadixSortBuffered5resetEv@Qt_6 6.6.1
 _ZN5physx2Cm17RadixSortBuffered6ResizeEj@Qt_6 6.6.1
 _ZN5physx2Cm17RadixSortBufferedC1Ev@Qt_6 6.6.1
 _ZN5physx2Cm17RadixSortBufferedC2Ev@Qt_6 6.6.1
 _ZN5physx2Cm17RadixSortBufferedD0Ev@Qt_6 6.6.1
 _ZN5physx2Cm17RadixSortBufferedD1Ev@Qt_6 6.6.1
 _ZN5physx2Cm17RadixSortBufferedD2Ev@Qt_6 6.6.1
 _ZN5physx2Cm18visualizeLimitConeERNS0_12RenderOutputEfRKNS_11PxTransformEffb@Qt_6 6.6.1
 _ZN5physx2Cm19visualizeDoubleConeERNS0_12RenderOutputEfRKNS_11PxTransformEfb@Qt_6 6.6.1
 _ZN5physx2Cm20visualizeJointFramesERNS0_12RenderOutputEfRKNS_11PxTransformES5_@Qt_6 6.6.1
 _ZN5physx2Cm20visualizeLinearLimitERNS0_12RenderOutputEfRKNS_11PxTransformES5_fb@Qt_6 6.6.1
 _ZN5physx2Cm21visualizeAngularLimitERNS0_12RenderOutputEfRKNS_11PxTransformEffb@Qt_6 6.6.1
 _ZN5physx2Cm8PtrTable15exportExtraDataERNS_22PxSerializationContextE@Qt_6 6.6.1
 _ZN5physx2Cm8PtrTable15importExtraDataERNS_24PxDeserializationContextE@Qt_6 6.6.1
 _ZN5physx2Cm8PtrTable15replaceWithLastEjRNS0_22PtrTableStorageManagerE@Qt_6 6.6.1
 _ZN5physx2Cm8PtrTable17getBinaryMetaDataERNS_14PxOutputStreamE@Qt_6 6.6.1
 _ZN5physx2Cm8PtrTable3addEPvRNS0_22PtrTableStorageManagerE@Qt_6 6.6.1
 _ZN5physx2Cm8PtrTable5clearERNS0_22PtrTableStorageManagerE@Qt_6 6.6.1
 _ZN5physx2Cm8PtrTable7reallocEjjRNS0_22PtrTableStorageManagerE@Qt_6 6.6.1
 _ZN5physx2Cm8PtrTableC1Ev@Qt_6 6.6.1
 _ZN5physx2Cm8PtrTableC2Ev@Qt_6 6.6.1
 _ZN5physx2Cm8PtrTableD1Ev@Qt_6 6.6.1
 _ZN5physx2Cm8PtrTableD2Ev@Qt_6 6.6.1
 _ZN5physx2Cm9DebugTextC1ERKNS_6PxVec3EfPKcz@Qt_6 6.6.1
 _ZN5physx2Cm9DebugTextC2ERKNS_6PxVec3EfPKcz@Qt_6 6.6.1
 _ZN5physx2Cm9RadixSort10SetBuffersEPjS2_S2_PS2_@Qt_6 6.6.1
 _ZN5physx2Cm9RadixSort4SortEPKfj@Qt_6 6.6.1
 _ZN5physx2Cm9RadixSort4SortEPKjjNS0_9RadixHintE@Qt_6 6.6.1
 _ZN5physx2Cm9RadixSortC1Ev@Qt_6 6.6.1
 _ZN5physx2Cm9RadixSortC2Ev@Qt_6 6.6.1
 _ZN5physx2Cm9RadixSortD0Ev@Qt_6 6.6.1
 _ZN5physx2Cm9RadixSortD1Ev@Qt_6 6.6.1
 _ZN5physx2Cm9RadixSortD2Ev@Qt_6 6.6.1
 _ZN5physx2CmlsERNS0_12RenderOutputERKNS0_10DebugArrowE@Qt_6 6.6.1
 _ZN5physx2CmlsERNS0_12RenderOutputERKNS0_10DebugBasisE@Qt_6 6.6.1
 _ZN5physx2CmlsERNS0_12RenderOutputERKNS0_11DebugCircleE@Qt_6 6.6.1
 _ZN5physx2CmlsERNS0_12RenderOutputERKNS0_8DebugArcE@Qt_6 6.6.1
 _ZN5physx2CmlsERNS0_12RenderOutputERKNS0_8DebugBoxE@Qt_6 6.6.1
 _ZN5physx2Gu10BuildBV4ExERNS0_7BV4TreeERNS0_10SourceMeshEfj@Qt_6 6.6.1
 _ZN5physx2Gu10ConvexMesh12createObjectERPhRNS_24PxDeserializationContextE@Qt_6 6.6.1
 _ZN5physx2Gu10ConvexMesh14onRefCountZeroEv@Qt_6 6.6.1
 _ZN5physx2Gu10ConvexMesh15exportExtraDataERNS_22PxSerializationContextE@Qt_6 6.6.1
 _ZN5physx2Gu10ConvexMesh15importExtraDataERNS_24PxDeserializationContextE@Qt_6 6.6.1
 _ZN5physx2Gu10ConvexMesh16acquireReferenceEv@Qt_6 6.6.1
 _ZN5physx2Gu10ConvexMesh4loadERNS_13PxInputStreamE@Qt_6 6.6.1
 _ZN5physx2Gu10ConvexMesh7releaseEv@Qt_6 6.6.1
 _ZN5physx2Gu10ConvexMeshC1ERNS_13GuMeshFactoryERNS0_18ConvexHullInitDataE@Qt_6 6.6.1
 _ZN5physx2Gu10ConvexMeshC1Ev@Qt_6 6.6.1
 _ZN5physx2Gu10ConvexMeshC2ERNS_13GuMeshFactoryERNS0_18ConvexHullInitDataE@Qt_6 6.6.1
 _ZN5physx2Gu10ConvexMeshC2Ev@Qt_6 6.6.1
 _ZN5physx2Gu10ConvexMeshD0Ev@Qt_6 6.6.1
 _ZN5physx2Gu10ConvexMeshD1Ev@Qt_6 6.6.1
 _ZN5physx2Gu10ConvexMeshD2Ev@Qt_6 6.6.1
 _ZN5physx2Gu10ReadHeaderEhhhhRjRbRNS_13PxInputStreamE@Qt_6 6.6.1
 _ZN5physx2Gu10SourceMeshC1Ev@Qt_6 6.6.1
 _ZN5physx2Gu10SourceMeshC2Ev@Qt_6 6.6.1
 _ZN5physx2Gu10SourceMeshD1Ev@Qt_6 6.6.1
 _ZN5physx2Gu10SourceMeshD2Ev@Qt_6 6.6.1
 _ZN5physx2Gu11BuildBV32ExERNS0_8BV32TreeERNS0_10SourceMeshEfj@Qt_6 6.6.1
 _ZN5physx2Gu11HeightField12createObjectERPhRNS_24PxDeserializationContextE@Qt_6 6.6.1
 _ZN5physx2Gu11HeightField12loadFromDescERKNS_17PxHeightFieldDescE@Qt_6 6.6.1
 _ZN5physx2Gu11HeightField13modifySamplesEiiRKNS_17PxHeightFieldDescEb@Qt_6 6.6.1
 _ZN5physx2Gu11HeightField13releaseMemoryEv@Qt_6 6.6.1
 _ZN5physx2Gu11HeightField14onRefCountZeroEv@Qt_6 6.6.1
 _ZN5physx2Gu11HeightField15exportExtraDataERNS_22PxSerializationContextE@Qt_6 6.6.1
 _ZN5physx2Gu11HeightField15importExtraDataERNS_24PxDeserializationContextE@Qt_6 6.6.1
 _ZN5physx2Gu11HeightField16acquireReferenceEv@Qt_6 6.6.1
 _ZN5physx2Gu11HeightField4loadERNS_13PxInputStreamE@Qt_6 6.6.1
 _ZN5physx2Gu11HeightField7releaseEv@Qt_6 6.6.1
 _ZN5physx2Gu11HeightFieldC1EPNS_13GuMeshFactoryE@Qt_6 6.6.1
 _ZN5physx2Gu11HeightFieldC1ERNS_13GuMeshFactoryERNS0_15HeightFieldDataE@Qt_6 6.6.1
 _ZN5physx2Gu11HeightFieldC2EPNS_13GuMeshFactoryE@Qt_6 6.6.1
 _ZN5physx2Gu11HeightFieldC2ERNS_13GuMeshFactoryERNS0_15HeightFieldDataE@Qt_6 6.6.1
 _ZN5physx2Gu11HeightFieldD0Ev@Qt_6 6.6.1
 _ZN5physx2Gu11HeightFieldD1Ev@Qt_6 6.6.1
 _ZN5physx2Gu11HeightFieldD2Ev@Qt_6 6.6.1
 _ZN5physx2Gu11WriteHeaderEhhhhjbRNS_14PxOutputStreamE@Qt_6 6.6.1
 _ZN5physx2Gu11getBoxEdgesEv@Qt_6 6.6.1
 _ZN5physx2Gu12PolygonalBoxC1ERKNS_6PxVec3E@Qt_6 6.6.1
 _ZN5physx2Gu12PolygonalBoxC2ERKNS_6PxVec3E@Qt_6 6.6.1
 _ZN5physx2Gu12StoreIndicesEjjPKjRNS_14PxOutputStreamEb@Qt_6 6.6.1
 _ZN5physx2Gu12StoreIndicesEtjPKtRNS_14PxOutputStreamEb@Qt_6 6.6.1
 _ZN5physx2Gu13GeometryUnion3setERKNS_10PxGeometryE@Qt_6 6.6.1
 _ZN5physx2Gu13NodeAllocator4initEjj@Qt_6 6.6.1
 _ZN5physx2Gu13NodeAllocator7releaseEv@Qt_6 6.6.1
 _ZN5physx2Gu13NodeAllocator9getBiNodeEv@Qt_6 6.6.1
 _ZN5physx2Gu13NodeAllocatorC1Ev@Qt_6 6.6.1
 _ZN5physx2Gu13NodeAllocatorC2Ev@Qt_6 6.6.1
 _ZN5physx2Gu13NodeAllocatorD1Ev@Qt_6 6.6.1
 _ZN5physx2Gu13NodeAllocatorD2Ev@Qt_6 6.6.1
 _ZN5physx2Gu13buildAABBTreeERNS0_19AABBTreeBuildParamsERNS0_13NodeAllocatorERNS0_10BuildStatsERPj@Qt_6 6.6.1
 _ZN5physx2Gu13computeBoundsERNS_9PxBounds3ERKNS_10PxGeometryERKNS_11PxTransformEfPKNS0_19CenterExtentsPaddedEf@Qt_6 6.6.1
 _ZN5physx2Gu13contactBoxBoxERKNS0_13GeometryUnionES3_RKNS_11PxTransformES6_RKNS0_17NarrowPhaseParamsERNS0_5CacheERNS0_13ContactBufferEPNS_2Cm12RenderOutputE@Qt_6 6.6.1
 _ZN5physx2Gu13getConvexDataERKNS0_13GeometryUnionERNS_2Cm23FastVertex2ShapeScalingERNS_9PxBounds3ERNS0_13PolygonalDataE@Qt_6 6.6.1
 _ZN5physx2Gu14SeparatingAxes7addAxisERKNS_6PxVec3E@Qt_6 6.6.1
 _ZN5physx2Gu14SourceMeshBaseC1Ev@Qt_6 6.6.1
 _ZN5physx2Gu14SourceMeshBaseC2Ev@Qt_6 6.6.1
 _ZN5physx2Gu14SourceMeshBaseD1Ev@Qt_6 6.6.1
 _ZN5physx2Gu14SourceMeshBaseD2Ev@Qt_6 6.6.1
 _ZN5physx2Gu14contactBoxMeshERKNS0_13GeometryUnionES3_RKNS_11PxTransformES6_RKNS0_17NarrowPhaseParamsERNS0_5CacheERNS0_13ContactBufferEPNS_2Cm12RenderOutputE@Qt_6 6.6.1
 _ZN5physx2Gu15BV4TriangleMesh12createObjectERPhRNS_24PxDeserializationContextE@Qt_6 6.6.1
 _ZN5physx2Gu15BV4TriangleMesh15exportExtraDataERNS_22PxSerializationContextE@Qt_6 6.6.1
 _ZN5physx2Gu15SweepShapeShapeERKNS0_8CCDShapeES3_RKNS_11PxTransformES6_S6_S6_fRNS_6PxVec3ES8_fRjf@Qt_6 6.6.1
 _ZN5physx2Gu15contactPlaneBoxERKNS0_13GeometryUnionES3_RKNS_11PxTransformES6_RKNS0_17NarrowPhaseParamsERNS0_5CacheERNS0_13ContactBufferEPNS_2Cm12RenderOutputE@Qt_6 6.6.1
 _ZN5physx2Gu15getScaledConvexERPNS_6PxVec3ERPhS2_S4_bPKS1_PKhjRKNS_2Cm23FastVertex2ShapeScalingE@Qt_6 6.6.1
 _ZN5physx2Gu15intersectOBBOBBERKNS_6PxVec3ES3_RKNS_7PxMat33ES3_S3_S6_b@Qt_6 6.6.1
 _ZN5physx2Gu16computeBoxPointsERKNS_9PxBounds3EPNS_6PxVec3E@Qt_6 6.6.1
 _ZN5physx2Gu16computeOBBPointsEPNS_6PxVec3ERKS1_S4_S4_S4_S4_@Qt_6 6.6.1
 _ZN5physx2Gu16contactBoxConvexERKNS0_13GeometryUnionES3_RKNS_11PxTransformES6_RKNS0_17NarrowPhaseParamsERNS0_5CacheERNS0_13ContactBufferEPNS_2Cm12RenderOutputE@Qt_6 6.6.1
 _ZN5physx2Gu16contactSphereBoxERKNS0_13GeometryUnionES3_RKNS_11PxTransformES6_RKNS0_17NarrowPhaseParamsERNS0_5CacheERNS0_13ContactBufferEPNS_2Cm12RenderOutputE@Qt_6 6.6.1
 (arch=amd64)_ZN5physx2Gu16intersectOBB_BV4EPKNS0_12TriangleMeshERKNS0_3BoxERNS0_15MeshHitCallbackINS_12PxRaycastHitEEEbb@Qt_6 6.6.1
 _ZN5physx2Gu16intersectRayAABBERKNS_6PxVec3ES3_S3_S3_RfS4_@Qt_6 6.6.1
 _ZN5physx2Gu16pcmContactBoxBoxERKNS0_13GeometryUnionES3_RKNS_11PxTransformES6_RKNS0_17NarrowPhaseParamsERNS0_5CacheERNS0_13ContactBufferEPNS_2Cm12RenderOutputE@Qt_6 6.6.1
 _ZN5physx2Gu17AABBTreeBuildNode15_buildHierarchyERNS0_19AABBTreeBuildParamsERNS0_10BuildStatsERNS0_13NodeAllocatorEPj@Qt_6 6.6.1
 _ZN5physx2Gu17AABBTreeBuildNode9subdivideERKNS0_19AABBTreeBuildParamsERNS0_10BuildStatsERNS0_13NodeAllocatorEPj@Qt_6 6.6.1
 _ZN5physx2Gu17RTreeTriangleMesh12createObjectERPhRNS_24PxDeserializationContextE@Qt_6 6.6.1
 _ZN5physx2Gu17RTreeTriangleMesh15exportExtraDataERNS_22PxSerializationContextE@Qt_6 6.6.1
 _ZN5physx2Gu17contactCapsuleBoxERKNS0_13GeometryUnionES3_RKNS_11PxTransformES6_RKNS0_17NarrowPhaseParamsERNS0_5CacheERNS0_13ContactBufferEPNS_2Cm12RenderOutputE@Qt_6 6.6.1
 _ZN5physx2Gu17contactConvexMeshERKNS0_13GeometryUnionES3_RKNS_11PxTransformES6_RKNS0_17NarrowPhaseParamsERNS0_5CacheERNS0_13ContactBufferEPNS_2Cm12RenderOutputE@Qt_6 6.6.1
 _ZN5physx2Gu17contactSphereMeshERKNS0_13GeometryUnionES3_RKNS_11PxTransformES6_RKNS0_17NarrowPhaseParamsERNS0_5CacheERNS0_13ContactBufferEPNS_2Cm12RenderOutputE@Qt_6 6.6.1
 _ZN5physx2Gu17getSweepFuncTableEv@Qt_6 6.6.1
 _ZN5physx2Gu17initAABBTreeBuildERNS0_19AABBTreeBuildParamsERNS0_13NodeAllocatorERNS0_10BuildStatsERPj@Qt_6 6.6.1
 _ZN5physx2Gu17intersectEdgeEdgeERKNS_6PxVec3ES3_S3_S3_S3_RfRS1_@Qt_6 6.6.1
 (arch=amd64)_ZN5physx2Gu17intersectRayAABB2ERKDv4_fS3_S3_S3_S3_RS1_S4_@Qt_6 6.6.1
 _ZN5physx2Gu17intersectRayAABB2ERKNS_6PxVec3ES3_S3_S3_fRfS4_@Qt_6 6.6.1
 (arch=!amd64)_ZN5physx2Gu17intersectRayAABB2ERKNS_6shdfnd3aos5Vec3VES5_S5_S5_RKNS2_6FloatVERS6_S9_@Qt_6 6.6.1
 _ZN5physx2Gu17pcmContactBoxMeshERKNS0_13GeometryUnionES3_RKNS_11PxTransformES6_RKNS0_17NarrowPhaseParamsERNS0_5CacheERNS0_13ContactBufferEPNS_2Cm12RenderOutputE@Qt_6 6.6.1
 _ZN5physx2Gu18contactCapsuleMeshERKNS0_13GeometryUnionES3_RKNS_11PxTransformES6_RKNS0_17NarrowPhaseParamsERNS0_5CacheERNS0_13ContactBufferEPNS_2Cm12RenderOutputE@Qt_6 6.6.1
 _ZN5physx2Gu18contactPlaneConvexERKNS0_13GeometryUnionES3_RKNS_11PxTransformES6_RKNS0_17NarrowPhaseParamsERNS0_5CacheERNS0_13ContactBufferEPNS_2Cm12RenderOutputE@Qt_6 6.6.1
 _ZN5physx2Gu18contactSpherePlaneERKNS0_13GeometryUnionES3_RKNS_11PxTransformES6_RKNS0_17NarrowPhaseParamsERNS0_5CacheERNS0_13ContactBufferEPNS_2Cm12RenderOutputE@Qt_6 6.6.1
 _ZN5physx2Gu18intersectOBB_RTREEEPKNS0_12TriangleMeshERKNS0_3BoxERNS0_15MeshHitCallbackINS_12PxRaycastHitEEEbb@Qt_6 6.6.1
 _ZN5physx2Gu18intersectRaySphereERKNS_6PxVec3ES3_fS3_fRfPS1_@Qt_6 6.6.1
 _ZN5physx2Gu18pcmContactPlaneBoxERKNS0_13GeometryUnionES3_RKNS_11PxTransformES6_RKNS0_17NarrowPhaseParamsERNS0_5CacheERNS0_13ContactBufferEPNS_2Cm12RenderOutputE@Qt_6 6.6.1
 _ZN5physx2Gu19contactConvexConvexERKNS0_13GeometryUnionES3_RKNS_11PxTransformES6_RKNS0_17NarrowPhaseParamsERNS0_5CacheERNS0_13ContactBufferEPNS_2Cm12RenderOutputE@Qt_6 6.6.1
 _ZN5physx2Gu19contactPlaneCapsuleERKNS0_13GeometryUnionES3_RKNS_11PxTransformES6_RKNS0_17NarrowPhaseParamsERNS0_5CacheERNS0_13ContactBufferEPNS_2Cm12RenderOutputE@Qt_6 6.6.1
 _ZN5physx2Gu19contactSphereSphereERKNS0_13GeometryUnionES3_RKNS_11PxTransformES6_RKNS0_17NarrowPhaseParamsERNS0_5CacheERNS0_13ContactBufferEPNS_2Cm12RenderOutputE@Qt_6 6.6.1
 _ZN5physx2Gu19getOverlapFuncTableEv@Qt_6 6.6.1
 _ZN5physx2Gu19getRaycastFuncTableEv@Qt_6 6.6.1
 _ZN5physx2Gu19pcmContactBoxConvexERKNS0_13GeometryUnionES3_RKNS_11PxTransformES6_RKNS0_17NarrowPhaseParamsERNS0_5CacheERNS0_13ContactBufferEPNS_2Cm12RenderOutputE@Qt_6 6.6.1
 _ZN5physx2Gu19pcmContactSphereBoxERKNS0_13GeometryUnionES3_RKNS_11PxTransformES6_RKNS0_17NarrowPhaseParamsERNS0_5CacheERNS0_13ContactBufferEPNS_2Cm12RenderOutputE@Qt_6 6.6.1
 _ZN5physx2Gu20contactCapsuleConvexERKNS0_13GeometryUnionES3_RKNS_11PxTransformES6_RKNS0_17NarrowPhaseParamsERNS0_5CacheERNS0_13ContactBufferEPNS_2Cm12RenderOutputE@Qt_6 6.6.1
 _ZN5physx2Gu20contactSphereCapsuleERKNS0_13GeometryUnionES3_RKNS_11PxTransformES6_RKNS0_17NarrowPhaseParamsERNS0_5CacheERNS0_13ContactBufferEPNS_2Cm12RenderOutputE@Qt_6 6.6.1
 _ZN5physx2Gu20intersectTriangleBoxERKNS0_9BoxPaddedERKNS_6PxVec3ES6_S6_@Qt_6 6.6.1
 _ZN5physx2Gu20pcmContactCapsuleBoxERKNS0_13GeometryUnionES3_RKNS_11PxTransformES6_RKNS0_17NarrowPhaseParamsERNS0_5CacheERNS0_13ContactBufferEPNS_2Cm12RenderOutputE@Qt_6 6.6.1
 _ZN5physx2Gu20pcmContactConvexMeshERKNS0_13GeometryUnionES3_RKNS_11PxTransformES6_RKNS0_17NarrowPhaseParamsERNS0_5CacheERNS0_13ContactBufferEPNS_2Cm12RenderOutputE@Qt_6 6.6.1
 _ZN5physx2Gu20pcmContactSphereMeshERKNS0_13GeometryUnionES3_RKNS_11PxTransformES6_RKNS0_17NarrowPhaseParamsERNS0_5CacheERNS0_13ContactBufferEPNS_2Cm12RenderOutputE@Qt_6 6.6.1
 _ZN5physx2Gu20registerHeightFieldsEv@Qt_6 6.6.1
 _ZN5physx2Gu21contactBoxHeightfieldERKNS0_13GeometryUnionES3_RKNS_11PxTransformES6_RKNS0_17NarrowPhaseParamsERNS0_5CacheERNS0_13ContactBufferEPNS_2Cm12RenderOutputE@Qt_6 6.6.1
 _ZN5physx2Gu21contactCapsuleCapsuleERKNS0_13GeometryUnionES3_RKNS_11PxTransformES6_RKNS0_17NarrowPhaseParamsERNS0_5CacheERNS0_13ContactBufferEPNS_2Cm12RenderOutputE@Qt_6 6.6.1
 _ZN5physx2Gu21findUniqueConvexEdgesEjPNS0_10ConvexEdgeEjPKNS0_15HullPolygonDataEPKh@Qt_6 6.6.1
 _ZN5physx2Gu21pcmContactCapsuleMeshERKNS0_13GeometryUnionES3_RKNS_11PxTransformES6_RKNS0_17NarrowPhaseParamsERNS0_5CacheERNS0_13ContactBufferEPNS_2Cm12RenderOutputE@Qt_6 6.6.1
 _ZN5physx2Gu21pcmContactPlaneConvexERKNS0_13GeometryUnionES3_RKNS_11PxTransformES6_RKNS0_17NarrowPhaseParamsERNS0_5CacheERNS0_13ContactBufferEPNS_2Cm12RenderOutputE@Qt_6 6.6.1
 _ZN5physx2Gu21pcmContactSpherePlaneERKNS0_13GeometryUnionES3_RKNS_11PxTransformES6_RKNS0_17NarrowPhaseParamsERNS0_5CacheERNS0_13ContactBufferEPNS_2Cm12RenderOutputE@Qt_6 6.6.1
 (arch=amd64)_ZN5physx2Gu21sweepBox_MeshGeom_BV4EPKNS0_12TriangleMeshERKNS_22PxTriangleMeshGeometryERKNS_11PxTransformERKNS0_3BoxERKNS_6PxVec3EfRNS_10PxSweepHitENS_7PxFlagsINS_9PxHitFlag4EnumEtEEf@Qt_6 6.6.1
 _ZN5physx2Gu22closestPtPointTriangleERKNS_6PxVec3ES3_S3_S3_RfS4_@Qt_6 6.6.1
 _ZN5physx2Gu22computeOBBAroundConvexERNS0_3BoxERKNS_20PxConvexMeshGeometryEPKNS_12PxConvexMeshERKNS_11PxTransformE@Qt_6 6.6.1
 (arch=amd64)_ZN5physx2Gu22intersectBoxVsMesh_BV4ERKNS0_3BoxERKNS0_12TriangleMeshERKNS_11PxTransformERKNS_11PxMeshScaleEPNS0_14LimitedResultsE@Qt_6 6.6.1
 _ZN5physx2Gu22pcmContactConvexConvexERKNS0_13GeometryUnionES3_RKNS_11PxTransformES6_RKNS0_17NarrowPhaseParamsERNS0_5CacheERNS0_13ContactBufferEPNS_2Cm12RenderOutputE@Qt_6 6.6.1
 _ZN5physx2Gu22pcmContactPlaneCapsuleERKNS0_13GeometryUnionES3_RKNS_11PxTransformES6_RKNS0_17NarrowPhaseParamsERNS0_5CacheERNS0_13ContactBufferEPNS_2Cm12RenderOutputE@Qt_6 6.6.1
 _ZN5physx2Gu22pcmContactSphereConvexERKNS0_13GeometryUnionES3_RKNS_11PxTransformES6_RKNS0_17NarrowPhaseParamsERNS0_5CacheERNS0_13ContactBufferEPNS_2Cm12RenderOutputE@Qt_6 6.6.1
 _ZN5physx2Gu22pcmContactSphereSphereERKNS0_13GeometryUnionES3_RKNS_11PxTransformES6_RKNS0_17NarrowPhaseParamsERNS0_5CacheERNS0_13ContactBufferEPNS_2Cm12RenderOutputE@Qt_6 6.6.1
 _ZN5physx2Gu23findRotationMatrixFromZERKNS_6PxVec3E@Qt_6 6.6.1
 _ZN5physx2Gu23intersectRaySphereBasicERKNS_6PxVec3ES3_fS3_fRfPS1_@Qt_6 6.6.1
 _ZN5physx2Gu23pcmContactCapsuleConvexERKNS0_13GeometryUnionES3_RKNS_11PxTransformES6_RKNS0_17NarrowPhaseParamsERNS0_5CacheERNS0_13ContactBufferEPNS_2Cm12RenderOutputE@Qt_6 6.6.1
 _ZN5physx2Gu23pcmContactSphereCapsuleERKNS0_13GeometryUnionES3_RKNS_11PxTransformES6_RKNS0_17NarrowPhaseParamsERNS0_5CacheERNS0_13ContactBufferEPNS_2Cm12RenderOutputE@Qt_6 6.6.1
 _ZN5physx2Gu23sweepBox_MeshGeom_RTREEEPKNS0_12TriangleMeshERKNS_22PxTriangleMeshGeometryERKNS_11PxTransformERKNS0_3BoxERKNS_6PxVec3EfRNS_10PxSweepHitENS_7PxFlagsINS_9PxHitFlag4EnumEtEEf@Qt_6 6.6.1
 _ZN5physx2Gu24contactConvexHeightfieldERKNS0_13GeometryUnionES3_RKNS_11PxTransformES6_RKNS0_17NarrowPhaseParamsERNS0_5CacheERNS0_13ContactBufferEPNS_2Cm12RenderOutputE@Qt_6 6.6.1
 _ZN5physx2Gu24contactPolygonPolygonExtEjPKNS_6PxVec3EPKhRKNS_2Cm8Matrix34ERKNS_7PxPlaneERKNS_7PxMat33EjS3_S5_S9_SC_SF_RS2_S9_S9_jjRNS0_13ContactBufferEbSG_f@Qt_6 6.6.1
 _ZN5physx2Gu24contactSphereHeightfieldERKNS0_13GeometryUnionES3_RKNS_11PxTransformES6_RKNS0_17NarrowPhaseParamsERNS0_5CacheERNS0_13ContactBufferEPNS_2Cm12RenderOutputE@Qt_6 6.6.1
 _ZN5physx2Gu24intersectBoxVsMesh_RTREEERKNS0_3BoxERKNS0_12TriangleMeshERKNS_11PxTransformERKNS_11PxMeshScaleEPNS0_14LimitedResultsE@Qt_6 6.6.1
 _ZN5physx2Gu24pcmContactBoxHeightFieldERKNS0_13GeometryUnionES3_RKNS_11PxTransformES6_RKNS0_17NarrowPhaseParamsERNS0_5CacheERNS0_13ContactBufferEPNS_2Cm12RenderOutputE@Qt_6 6.6.1
 _ZN5physx2Gu24pcmContactCapsuleCapsuleERKNS0_13GeometryUnionES3_RKNS_11PxTransformES6_RKNS0_17NarrowPhaseParamsERNS0_5CacheERNS0_13ContactBufferEPNS_2Cm12RenderOutputE@Qt_6 6.6.1
 (arch=amd64)_ZN5physx2Gu24raycast_triangleMesh_BV4EPKNS0_12TriangleMeshERKNS_22PxTriangleMeshGeometryERKNS_11PxTransformERKNS_6PxVec3ESC_fNS_7PxFlagsINS_9PxHitFlag4EnumEtEEjPNS_12PxRaycastHitE@Qt_6 6.6.1
 (arch=amd64)_ZN5physx2Gu24sweepConvex_MeshGeom_BV4EPKNS0_12TriangleMeshERKNS0_3BoxERKNS_6PxVec3EfRNS0_26SweepConvexMeshHitCallbackEb@Qt_6 6.6.1
 _ZN5physx2Gu25SweepEstimateAnyShapeMeshERKNS0_8CCDShapeES3_RKNS_11PxTransformES6_S6_S6_ff@Qt_6 6.6.1
 _ZN5physx2Gu25contactCapsuleHeightfieldERKNS0_13GeometryUnionES3_RKNS_11PxTransformES6_RKNS0_17NarrowPhaseParamsERNS0_5CacheERNS0_13ContactBufferEPNS_2Cm12RenderOutputE@Qt_6 6.6.1
 _ZN5physx2Gu25distanceSegmentBoxSquaredERKNS_6PxVec3ES3_S3_S3_RKNS_7PxMat33EPfPS1_@Qt_6 6.6.1
 (arch=amd64)_ZN5physx2Gu25intersectSphereVsMesh_BV4ERKNS0_6SphereERKNS0_12TriangleMeshERKNS_11PxTransformERKNS_11PxMeshScaleEPNS0_14LimitedResultsE@Qt_6 6.6.1
 (arch=amd64)_ZN5physx2Gu25sweepCapsule_MeshGeom_BV4EPKNS0_12TriangleMeshERKNS_22PxTriangleMeshGeometryERKNS_11PxTransformERKNS0_7CapsuleERKNS_6PxVec3EfRNS_10PxSweepHitENS_7PxFlagsINS_9PxHitFlag4EnumEtEEf@Qt_6 6.6.1
 (arch=amd64)_ZN5physx2Gu26intersectCapsuleVsMesh_BV4ERKNS0_7CapsuleERKNS0_12TriangleMeshERKNS_11PxTransformERKNS_11PxMeshScaleEPNS0_14LimitedResultsE@Qt_6 6.6.1
 _ZN5physx2Gu26raycast_triangleMesh_RTREEEPKNS0_12TriangleMeshERKNS_22PxTriangleMeshGeometryERKNS_11PxTransformERKNS_6PxVec3ESC_fNS_7PxFlagsINS_9PxHitFlag4EnumEtEEjPNS_12PxRaycastHitE@Qt_6 6.6.1
 _ZN5physx2Gu26sweepConvex_MeshGeom_RTREEEPKNS0_12TriangleMeshERKNS0_3BoxERKNS_6PxVec3EfRNS0_26SweepConvexMeshHitCallbackEb@Qt_6 6.6.1
 _ZN5physx2Gu27computeBoundsAroundVerticesERNS_9PxBounds3EjPKNS_6PxVec3E@Qt_6 6.6.1
 _ZN5physx2Gu27intersectSphereVsMesh_RTREEERKNS0_6SphereERKNS0_12TriangleMeshERKNS_11PxTransformERKNS_11PxMeshScaleEPNS0_14LimitedResultsE@Qt_6 6.6.1
 _ZN5physx2Gu27intersectTriangleBox_UnsafeERKNS_6PxVec3ES3_S3_S3_S3_@Qt_6 6.6.1
 _ZN5physx2Gu27pcmContactConvexHeightFieldERKNS0_13GeometryUnionES3_RKNS_11PxTransformES6_RKNS0_17NarrowPhaseParamsERNS0_5CacheERNS0_13ContactBufferEPNS_2Cm12RenderOutputE@Qt_6 6.6.1
 _ZN5physx2Gu27pcmContactSphereHeightFieldERKNS0_13GeometryUnionES3_RKNS_11PxTransformES6_RKNS0_17NarrowPhaseParamsERNS0_5CacheERNS0_13ContactBufferEPNS_2Cm12RenderOutputE@Qt_6 6.6.1
 _ZN5physx2Gu27sweepCapsule_MeshGeom_RTREEEPKNS0_12TriangleMeshERKNS_22PxTriangleMeshGeometryERKNS_11PxTransformERKNS0_7CapsuleERKNS_6PxVec3EfRNS_10PxSweepHitENS_7PxFlagsINS_9PxHitFlag4EnumEtEEf@Qt_6 6.6.1
 (arch=amd64)_ZN5physx2Gu28distancePointTriangleSquaredERKDv4_fS3_S3_S3_RS1_S4_S4_@Qt_6 6.6.1
 (arch=!amd64)_ZN5physx2Gu28distancePointTriangleSquaredERKNS_6shdfnd3aos5Vec3VES5_S5_S5_RNS2_6FloatVES7_RS3_@Qt_6 6.6.1
 _ZN5physx2Gu28intersectCapsuleVsMesh_RTREEERKNS0_7CapsuleERKNS0_12TriangleMeshERKNS_11PxTransformERKNS_11PxMeshScaleEPNS0_14LimitedResultsE@Qt_6 6.6.1
 _ZN5physx2Gu28pcmContactCapsuleHeightFieldERKNS0_13GeometryUnionES3_RKNS_11PxTransformES6_RKNS0_17NarrowPhaseParamsERNS0_5CacheERNS0_13ContactBufferEPNS_2Cm12RenderOutputE@Qt_6 6.6.1
 _ZN5physx2Gu29checkOverlapAABB_triangleGeomERKNS_10PxGeometryERKNS_11PxTransformERKNS_9PxBounds3E@Qt_6 6.6.1
 _ZN5physx2Gu29computeBoundsWithCCDThresholdERNS0_5Vec3pES2_RKNS_10PxGeometryERKNS_11PxTransformEPKNS0_19CenterExtentsPaddedE@Qt_6 6.6.1
 (arch=amd64)_ZN5physx2Gu29distanceSegmentSegmentSquaredERKDv4_fS3_S3_S3_RS1_S4_@Qt_6 6.6.1
 _ZN5physx2Gu29distanceSegmentSegmentSquaredERKNS_6PxVec3ES3_S3_S3_PfS4_@Qt_6 6.6.1
 _ZN5physx2Gu29distanceSegmentSegmentSquaredERKNS_6PxVec3ES3_fS3_S3_fPfS4_@Qt_6 6.6.1
 (arch=!amd64)_ZN5physx2Gu29distanceSegmentSegmentSquaredERKNS_6shdfnd3aos5Vec3VES5_S5_S5_RNS2_6FloatVES7_@Qt_6 6.6.1
 (arch=amd64)_ZN5physx2Gu30distanceSegmentTriangleSquaredERKDv4_fS3_S3_S3_S3_RS1_S4_@Qt_6 6.6.1
 _ZN5physx2Gu30distanceSegmentTriangleSquaredERKNS_6PxVec3ES3_S3_S3_S3_PfS4_S4_@Qt_6 6.6.1
 (arch=!amd64)_ZN5physx2Gu30distanceSegmentTriangleSquaredERKNS_6shdfnd3aos5Vec3VES5_S5_S5_S5_RS3_S6_@Qt_6 6.6.1
 _ZN5physx2Gu32SweepEstimateAnyShapeHeightfieldERKNS0_8CCDShapeES3_RKNS_11PxTransformES6_S6_S6_ff@Qt_6 6.6.1
 _ZN5physx2Gu32checkOverlapAABB_heightFieldGeomERKNS_10PxGeometryERKNS_11PxTransformERKNS_9PxBounds3E@Qt_6 6.6.1
 _ZN5physx2Gu33MultiplePersistentContactManifold10fromBufferEPh@Qt_6 6.6.1
 (arch=amd64)_ZN5physx2Gu33MultiplePersistentContactManifold11drawPolygonERNS_2Cm12RenderOutputERKNS_6shdfnd3aos12PsTransformVEPDv4_fjj@Qt_6 6.6.1
 (arch=!amd64)_ZN5physx2Gu33MultiplePersistentContactManifold11drawPolygonERNS_2Cm12RenderOutputERKNS_6shdfnd3aos12PsTransformVEPNS6_5Vec3VEjj@Qt_6 6.6.1
 _ZN5physx2Gu33MultiplePersistentContactManifold12drawManifoldERNS_2Cm12RenderOutputERKNS_6shdfnd3aos12PsTransformVES9_@Qt_6 6.6.1
 (arch=amd64)_ZN5physx2Gu33MultiplePersistentContactManifold24addManifoldContactPointsEPNS0_21MeshPersistentContactEjPPNS0_15PCMContactPatchEjRKDv4_fS9_h@Qt_6 6.6.1
 (arch=!amd64)_ZN5physx2Gu33MultiplePersistentContactManifold24addManifoldContactPointsEPNS0_21MeshPersistentContactEjPPNS0_15PCMContactPatchEjRKNS_6shdfnd3aos6FloatVESB_h@Qt_6 6.6.1
 _ZN5physx2Gu33MultiplePersistentContactManifold34addManifoldContactsToContactBufferERNS0_13ContactBufferERKNS_6shdfnd3aos12PsTransformVE@Qt_6 6.6.1
 (arch=amd64)_ZN5physx2Gu33MultiplePersistentContactManifold34addManifoldContactsToContactBufferERNS0_13ContactBufferERKNS_6shdfnd3aos12PsTransformVES8_RKDv4_f@Qt_6 6.6.1
 (arch=!amd64)_ZN5physx2Gu33MultiplePersistentContactManifold34addManifoldContactsToContactBufferERNS0_13ContactBufferERKNS_6shdfnd3aos12PsTransformVES8_RKNS5_6FloatVE@Qt_6 6.6.1
 _ZN5physx2Gu33MultiplePersistentContactManifold8drawLineERNS_2Cm12RenderOutputENS_6PxVec3ES5_j@Qt_6 6.6.1
 (arch=amd64)_ZN5physx2Gu33MultiplePersistentContactManifold8drawLineERNS_2Cm12RenderOutputERKDv4_fS7_j@Qt_6 6.6.1
 (arch=!amd64)_ZN5physx2Gu33MultiplePersistentContactManifold8drawLineERNS_2Cm12RenderOutputERKNS_6shdfnd3aos5Vec3VES9_j@Qt_6 6.6.1
 (arch=amd64)_ZN5physx2Gu33MultiplePersistentContactManifold9drawPointERNS_2Cm12RenderOutputERKDv4_ffj@Qt_6 6.6.1
 (arch=!amd64)_ZN5physx2Gu33MultiplePersistentContactManifold9drawPointERNS_2Cm12RenderOutputERKNS_6shdfnd3aos5Vec3VEfj@Qt_6 6.6.1
 _ZN5physx2Gu34intersectTriangleBox_ReferenceCodeERKNS_6PxVec3ES3_S3_S3_S3_@Qt_6 6.6.1
 _ZN5physx2Gu3Box6createERKNS0_7CapsuleE@Qt_6 6.6.1
 _ZN5physx2Gu5RTree8validateEPNS1_13CallbackRefitE@Qt_6 6.6.1
 _ZN5physx2Gu7BV4TreeC1EPNS0_10SourceMeshERKNS_9PxBounds3E@Qt_6 6.6.1
 _ZN5physx2Gu7BV4TreeC1Ev@Qt_6 6.6.1
 _ZN5physx2Gu7BV4TreeC2EPNS0_10SourceMeshERKNS_9PxBounds3E@Qt_6 6.6.1
 _ZN5physx2Gu7BV4TreeC2Ev@Qt_6 6.6.1
 _ZN5physx2Gu7BV4TreeD1Ev@Qt_6 6.6.1
 _ZN5physx2Gu7BV4TreeD2Ev@Qt_6 6.6.1
 _ZN5physx2Gu8BV32TreeC1EPNS0_10SourceMeshERKNS_9PxBounds3E@Qt_6 6.6.1
 _ZN5physx2Gu8BV32TreeC1Ev@Qt_6 6.6.1
 _ZN5physx2Gu8BV32TreeC2EPNS0_10SourceMeshERKNS_9PxBounds3E@Qt_6 6.6.1
 _ZN5physx2Gu8BV32TreeC2Ev@Qt_6 6.6.1
 _ZN5physx2Gu8BV32TreeD1Ev@Qt_6 6.6.1
 _ZN5physx2Gu8BV32TreeD2Ev@Qt_6 6.6.1
 _ZN5physx2Gu9ShapeDataC1ERKNS_10PxGeometryERKNS_11PxTransformEf@Qt_6 6.6.1
 _ZN5physx2Gu9ShapeDataC2ERKNS_10PxGeometryERKNS_11PxTransformEf@Qt_6 6.6.1
 _ZN5physx6shdfnd10Foundation11decRefCountEv@Qt_6 6.6.1
 _ZN5physx6shdfnd10Foundation11getInstanceEv@Qt_6 6.6.1
 _ZN5physx6shdfnd10Foundation11incRefCountEv@Qt_6 6.6.1
 _ZN5physx6shdfnd10Foundation11setInstanceERS1_@Qt_6 6.6.1
 _ZN5physx6shdfnd10Foundation14createInstanceEjRNS_15PxErrorCallbackERNS_19PxAllocatorCallbackE@Qt_6 6.6.1
 _ZN5physx6shdfnd10Foundation15destroyInstanceEv@Qt_6 6.6.1
 _ZN5physx6shdfnd10Foundation17mWarnOnceTimestapE@Qt_6 6.6.1
 _ZN5physx6shdfnd10Foundation20getWarnOnceTimestampEv@Qt_6 6.6.1
 _ZN5physx6shdfnd10Foundation21registerErrorCallbackERNS_15PxErrorCallbackE@Qt_6 6.6.1
 _ZN5physx6shdfnd10Foundation23deregisterErrorCallbackERNS_15PxErrorCallbackE@Qt_6 6.6.1
 _ZN5physx6shdfnd10Foundation26registerAllocationListenerERNS0_18AllocationListenerE@Qt_6 6.6.1
 _ZN5physx6shdfnd10Foundation28deregisterAllocationListenerERNS0_18AllocationListenerE@Qt_6 6.6.1
 _ZN5physx6shdfnd10Foundation5errorENS_11PxErrorCode4EnumEPKciS5_z@Qt_6 6.6.1
 _ZN5physx6shdfnd10Foundation7releaseEv@Qt_6 6.6.1
 (arch=amd64)_ZN5physx6shdfnd10Foundation9errorImplENS_11PxErrorCode4EnumEPKciS5_P13__va_list_tag@Qt_6 6.6.1
 (arch=mips64el)_ZN5physx6shdfnd10Foundation9errorImplENS_11PxErrorCode4EnumEPKciS5_Pv@Qt_6 6.6.1
 (arch=!amd64 !mips64el)_ZN5physx6shdfnd10Foundation9errorImplENS_11PxErrorCode4EnumEPKciS5_St9__va_list@Qt_6 6.6.1
 _ZN5physx6shdfnd10Foundation9mInstanceE@Qt_6 6.6.1
 _ZN5physx6shdfnd10Foundation9mRefCountE@Qt_6 6.6.1
 _ZN5physx6shdfnd10FoundationC1ERNS_15PxErrorCallbackERNS_19PxAllocatorCallbackE@Qt_6 6.6.1
 _ZN5physx6shdfnd10FoundationC2ERNS_15PxErrorCallbackERNS_19PxAllocatorCallbackE@Qt_6 6.6.1
 _ZN5physx6shdfnd10FoundationD0Ev@Qt_6 6.6.1
 _ZN5physx6shdfnd10FoundationD1Ev@Qt_6 6.6.1
 _ZN5physx6shdfnd10FoundationD2Ev@Qt_6 6.6.1
 _ZN5physx6shdfnd10ThreadImpl10signalQuitEv@Qt_6 6.6.1
 (subst)_ZN5physx6shdfnd10ThreadImpl11getPriorityE{size_t}@Qt_6 6.6.1
 _ZN5physx6shdfnd10ThreadImpl11setPriorityENS0_14ThreadPriority4EnumE@Qt_6 6.6.1
 _ZN5physx6shdfnd10ThreadImpl11waitForQuitEv@Qt_6 6.6.1
 _ZN5physx6shdfnd10ThreadImpl15quitIsSignalledEv@Qt_6 6.6.1
 _ZN5physx6shdfnd10ThreadImpl15setAffinityMaskEj@Qt_6 6.6.1
 _ZN5physx6shdfnd10ThreadImpl18getNbPhysicalCoresEv@Qt_6 6.6.1
 _ZN5physx6shdfnd10ThreadImpl19getDefaultStackSizeEv@Qt_6 6.6.1
 _ZN5physx6shdfnd10ThreadImpl4killEv@Qt_6 6.6.1
 _ZN5physx6shdfnd10ThreadImpl4quitEv@Qt_6 6.6.1
 _ZN5physx6shdfnd10ThreadImpl5getIdEv@Qt_6 6.6.1
 _ZN5physx6shdfnd10ThreadImpl5sleepEj@Qt_6 6.6.1
 _ZN5physx6shdfnd10ThreadImpl5startEjPNS0_8RunnableE@Qt_6 6.6.1
 _ZN5physx6shdfnd10ThreadImpl5yieldEv@Qt_6 6.6.1
 _ZN5physx6shdfnd10ThreadImpl7getSizeEv@Qt_6 6.6.1
 _ZN5physx6shdfnd10ThreadImpl7setNameEPKc@Qt_6 6.6.1
 _ZN5physx6shdfnd10ThreadImplC1EPFPvS2_ES2_PKc@Qt_6 6.6.1
 _ZN5physx6shdfnd10ThreadImplC1Ev@Qt_6 6.6.1
 _ZN5physx6shdfnd10ThreadImplC2EPFPvS2_ES2_PKc@Qt_6 6.6.1
 _ZN5physx6shdfnd10ThreadImplC2Ev@Qt_6 6.6.1
 _ZN5physx6shdfnd10ThreadImplD1Ev@Qt_6 6.6.1
 _ZN5physx6shdfnd10ThreadImplD2Ev@Qt_6 6.6.1
 _ZN5physx6shdfnd11TlsGetValueEj@Qt_6 6.6.1
 (subst)_ZN5physx6shdfnd11TlsSetValueEj{size_t}@Qt_6 6.6.1
 _ZN5physx6shdfnd11printStringEPKc@Qt_6 6.6.1
 _ZN5physx6shdfnd12getAllocatorEv@Qt_6 6.6.1
 _ZN5physx6shdfnd13ReadWriteLock10lockReaderEb@Qt_6 6.6.1
 _ZN5physx6shdfnd13ReadWriteLock10lockWriterEv@Qt_6 6.6.1
 _ZN5physx6shdfnd13ReadWriteLock12unlockReaderEv@Qt_6 6.6.1
 _ZN5physx6shdfnd13ReadWriteLock12unlockWriterEv@Qt_6 6.6.1
 _ZN5physx6shdfnd13ReadWriteLockC1Ev@Qt_6 6.6.1
 _ZN5physx6shdfnd13ReadWriteLockC2Ev@Qt_6 6.6.1
 _ZN5physx6shdfnd13ReadWriteLockD1Ev@Qt_6 6.6.1
 _ZN5physx6shdfnd13ReadWriteLockD2Ev@Qt_6 6.6.1
 _ZN5physx6shdfnd13TempAllocator10deallocateEPv@Qt_6 6.6.1
 (subst)_ZN5physx6shdfnd13TempAllocator8allocateE{size_t}PKci@Qt_6 6.6.1
 _ZN5physx6shdfnd14atomicExchangeEPVii@Qt_6 6.6.1
 _ZN5physx6shdfnd14printFormattedEPKcz@Qt_6 6.6.1
 _ZN5physx6shdfnd15atomicDecrementEPVi@Qt_6 6.6.1
 _ZN5physx6shdfnd15atomicIncrementEPVi@Qt_6 6.6.1
 _ZN5physx6shdfnd18enableFPExceptionsEv@Qt_6 6.6.1
 _ZN5physx6shdfnd18integrateTransformERKNS_11PxTransformERKNS_6PxVec3ES6_fRS1_@Qt_6 6.6.1
 _ZN5physx6shdfnd19disableFPExceptionsEv@Qt_6 6.6.1
 _ZN5physx6shdfnd19optimizeBoundingBoxERNS_7PxMat33E@Qt_6 6.6.1
 _ZN5physx6shdfnd21atomicCompareExchangeEPViii@Qt_6 6.6.1
 _ZN5physx6shdfnd28atomicCompareExchangePointerEPPVvPvS4_@Qt_6 6.6.1
 _ZN5physx6shdfnd5slerpEfRKNS_6PxQuatES3_@Qt_6 6.6.1
 _ZN5physx6shdfnd6TlsGetEj@Qt_6 6.6.1
 _ZN5physx6shdfnd6TlsSetEjPv@Qt_6 6.6.1
 _ZN5physx6shdfnd6sscanfEPKcS2_z@Qt_6 6.6.1
 _ZN5physx6shdfnd6strcmpEPKcS2_@Qt_6 6.6.1
 _ZN5physx6shdfnd6strlwrEPc@Qt_6 6.6.1
 _ZN5physx6shdfnd6struprEPc@Qt_6 6.6.1
 _ZN5physx6shdfnd7TlsFreeEj@Qt_6 6.6.1
 _ZN5physx6shdfnd7stricmpEPKcS2_@Qt_6 6.6.1
 (subst)_ZN5physx6shdfnd7strlcatEPc{size_t}PKc@Qt_6 6.6.1
 (subst)_ZN5physx6shdfnd7strlcpyEPc{size_t}PKc@Qt_6 6.6.1
 (subst)_ZN5physx6shdfnd7strncmpEPKcS2_{size_t}@Qt_6 6.6.1
 _ZN5physx6shdfnd8FPUGuardC1Ev@Qt_6 6.6.1
 _ZN5physx6shdfnd8FPUGuardC2Ev@Qt_6 6.6.1
 _ZN5physx6shdfnd8FPUGuardD1Ev@Qt_6 6.6.1
 _ZN5physx6shdfnd8FPUGuardD2Ev@Qt_6 6.6.1
 _ZN5physx6shdfnd8SyncImpl3setEv@Qt_6 6.6.1
 _ZN5physx6shdfnd8SyncImpl4waitEj@Qt_6 6.6.1
 _ZN5physx6shdfnd8SyncImpl5resetEv@Qt_6 6.6.1
 _ZN5physx6shdfnd8SyncImpl7getSizeEv@Qt_6 6.6.1
 _ZN5physx6shdfnd8SyncImplC1Ev@Qt_6 6.6.1
 _ZN5physx6shdfnd8SyncImplC2Ev@Qt_6 6.6.1
 _ZN5physx6shdfnd8SyncImplD1Ev@Qt_6 6.6.1
 _ZN5physx6shdfnd8SyncImplD2Ev@Qt_6 6.6.1
 _ZN5physx6shdfnd8TlsAllocEv@Qt_6 6.6.1
 (subst)_ZN5physx6shdfnd8snprintfEPc{size_t}PKcz@Qt_6 6.6.1
 (subst)_ZN5physx6shdfnd8strnicmpEPKcS2_{size_t}@Qt_6 6.6.1
 _ZN5physx6shdfnd9Allocator10deallocateEPv@Qt_6 6.6.1
 (subst)_ZN5physx6shdfnd9Allocator8allocateE{size_t}PKci@Qt_6 6.6.1
 _ZN5physx6shdfnd9MutexImpl4lockEv@Qt_6 6.6.1
 _ZN5physx6shdfnd9MutexImpl6unlockEv@Qt_6 6.6.1
 _ZN5physx6shdfnd9MutexImpl7getSizeEv@Qt_6 6.6.1
 _ZN5physx6shdfnd9MutexImpl7trylockEv@Qt_6 6.6.1
 _ZN5physx6shdfnd9MutexImplC1Ev@Qt_6 6.6.1
 _ZN5physx6shdfnd9MutexImplC2Ev@Qt_6 6.6.1
 _ZN5physx6shdfnd9MutexImplD1Ev@Qt_6 6.6.1
 _ZN5physx6shdfnd9MutexImplD2Ev@Qt_6 6.6.1
 _ZN5physx6shdfnd9SListImpl3popEv@Qt_6 6.6.1
 _ZN5physx6shdfnd9SListImpl4pushEPNS0_10SListEntryE@Qt_6 6.6.1
 _ZN5physx6shdfnd9SListImpl5flushEv@Qt_6 6.6.1
 _ZN5physx6shdfnd9SListImpl7getSizeEv@Qt_6 6.6.1
 _ZN5physx6shdfnd9SListImplC1Ev@Qt_6 6.6.1
 _ZN5physx6shdfnd9SListImplC2Ev@Qt_6 6.6.1
 _ZN5physx6shdfnd9SListImplD1Ev@Qt_6 6.6.1
 _ZN5physx6shdfnd9SListImplD2Ev@Qt_6 6.6.1
 _ZN5physx6shdfnd9atomicAddEPVii@Qt_6 6.6.1
 _ZN5physx6shdfnd9atomicMaxEPVii@Qt_6 6.6.1
 (arch=amd64)_ZN5physx6shdfnd9vsnprintfEPcmPKcP13__va_list_tag@Qt_6 6.6.1
 (arch=mips64el)_ZN5physx6shdfnd9vsnprintfEPcmPKcPv@Qt_6 6.6.1
 (arch=!amd64 !mips64el|subst)_ZN5physx6shdfnd9vsnprintfEPc{size_t}PKcSt9__va_list@Qt_6 6.6.1
 _ZN5physx9readDwordEbRNS_13PxInputStreamE@Qt_6 6.6.1
 _ZN5physx9writeWordEtbRNS_14PxOutputStreamE@Qt_6 6.6.1
 _ZN9QBoxShape10setExtentsE9QVector3D@Qt_6_PRIVATE_API 6.6.1
 _ZN9QBoxShape11qt_metacallEN11QMetaObject4CallEiPPv@Qt_6_PRIVATE_API 6.6.1
 _ZN9QBoxShape11qt_metacastEPKc@Qt_6_PRIVATE_API 6.6.1
 _ZN9QBoxShape14extentsChangedE9QVector3D@Qt_6_PRIVATE_API 6.6.1
 _ZN9QBoxShape16getPhysXGeometryEv@Qt_6_PRIVATE_API 6.6.1
 _ZN9QBoxShape16staticMetaObjectE@Qt_6_PRIVATE_API 6.6.1
 _ZN9QBoxShape19updatePhysXGeometryEv@Qt_6_PRIVATE_API 6.6.1
 _ZN9QBoxShapeC1Ev@Qt_6_PRIVATE_API 6.6.1
 _ZN9QBoxShapeC2Ev@Qt_6_PRIVATE_API 6.6.1
 _ZN9QBoxShapeD0Ev@Qt_6_PRIVATE_API 6.6.1
 _ZN9QBoxShapeD1Ev@Qt_6_PRIVATE_API 6.6.1
 _ZN9QBoxShapeD2Ev@Qt_6_PRIVATE_API 6.6.1
 _ZNK11QPlaneShape10metaObjectEv@Qt_6_PRIVATE_API 6.6.1
 _ZNK12QSphereShape10metaObjectEv@Qt_6_PRIVATE_API 6.6.1
 _ZNK12QSphereShape8diameterEv@Qt_6_PRIVATE_API 6.6.1
 _ZNK12QTriggerBody10metaObjectEv@Qt_6_PRIVATE_API 6.6.1
 _ZNK12QTriggerBody14collisionCountEv@Qt_6_PRIVATE_API 6.6.1
 _ZNK13QCapsuleShape10metaObjectEv@Qt_6_PRIVATE_API 6.6.1
 _ZNK13QCapsuleShape6heightEv@Qt_6_PRIVATE_API 6.6.1
 _ZNK13QCapsuleShape8diameterEv@Qt_6_PRIVATE_API 6.6.1
 _ZNK13QPhysicsWorld10metaObjectEv@Qt_6_PRIVATE_API 6.6.1
 _ZNK13QPhysicsWorld12typicalSpeedEv@Qt_6_PRIVATE_API 6.6.1
 _ZNK13QPhysicsWorld13typicalLengthEv@Qt_6_PRIVATE_API 6.6.1
 _ZNK13QPhysicsWorld14defaultDensityEv@Qt_6_PRIVATE_API 6.6.1
 _ZNK13QPhysicsWorld14forceDebugDrawEv@Qt_6_PRIVATE_API 6.6.1
 _ZNK13QPhysicsWorld15maximumTimestepEv@Qt_6_PRIVATE_API 6.6.1
 _ZNK13QPhysicsWorld15minimumTimestepEv@Qt_6_PRIVATE_API 6.6.1
 _ZNK13QPhysicsWorld5sceneEv@Qt_6_PRIVATE_API 6.6.1
 _ZNK13QPhysicsWorld7gravityEv@Qt_6_PRIVATE_API 6.6.1
 _ZNK13QPhysicsWorld7runningEv@Qt_6_PRIVATE_API 6.6.1
 _ZNK13QPhysicsWorld8viewportEv@Qt_6_PRIVATE_API 6.6.1
 _ZNK13QPhysicsWorld9enableCCDEv@Qt_6_PRIVATE_API 6.6.1
 _ZNK16QConvexMeshShape10metaObjectEv@Qt_6_PRIVATE_API 6.6.1
 _ZNK16QConvexMeshShape6sourceEv@Qt_6_PRIVATE_API 6.6.1
 _ZNK16QPhysicsMaterial10metaObjectEv@Qt_6_PRIVATE_API 6.6.1
 _ZNK16QPhysicsMaterial11restitutionEv@Qt_6_PRIVATE_API 6.6.1
 _ZNK16QPhysicsMaterial14staticFrictionEv@Qt_6_PRIVATE_API 6.6.1
 _ZNK16QPhysicsMaterial15dynamicFrictionEv@Qt_6_PRIVATE_API 6.6.1
 _ZNK16QStaticRigidBody10metaObjectEv@Qt_6_PRIVATE_API 6.6.1
 _ZNK17QDynamicRigidBody10metaObjectEv@Qt_6_PRIVATE_API 6.6.1
 _ZNK17QDynamicRigidBody11isKinematicEv@Qt_6_PRIVATE_API 6.6.1
 _ZNK17QDynamicRigidBody13inertiaMatrixEv@Qt_6_PRIVATE_API 6.6.1
 _ZNK17QDynamicRigidBody13inertiaTensorEv@Qt_6_PRIVATE_API 6.6.1
 _ZNK17QDynamicRigidBody14gravityEnabledEv@Qt_6_PRIVATE_API 6.6.1
 _ZNK17QDynamicRigidBody14kinematicPivotEv@Qt_6_PRIVATE_API 6.6.1
 _ZNK17QDynamicRigidBody14linearAxisLockEv@Qt_6_PRIVATE_API 6.6.1
 _ZNK17QDynamicRigidBody15angularAxisLockEv@Qt_6_PRIVATE_API 6.6.1
 _ZNK17QDynamicRigidBody17kinematicPositionEv@Qt_6_PRIVATE_API 6.6.1
 _ZNK17QDynamicRigidBody17kinematicRotationEv@Qt_6_PRIVATE_API 6.6.1
 _ZNK17QDynamicRigidBody17readInertiaMatrixEv@Qt_6_PRIVATE_API 6.6.1
 _ZNK17QDynamicRigidBody20centerOfMassPositionEv@Qt_6_PRIVATE_API 6.6.1
 _ZNK17QDynamicRigidBody20centerOfMassRotationEv@Qt_6_PRIVATE_API 6.6.1
 _ZNK17QDynamicRigidBody22kinematicEulerRotationEv@Qt_6_PRIVATE_API 6.6.1
 _ZNK17QDynamicRigidBody4massEv@Qt_6_PRIVATE_API 6.6.1
 _ZNK17QDynamicRigidBody7densityEv@Qt_6_PRIVATE_API 6.6.1
 _ZNK17QDynamicRigidBody8massModeEv@Qt_6_PRIVATE_API 6.6.1
 _ZNK17QHeightFieldShape10metaObjectEv@Qt_6_PRIVATE_API 6.6.1
 _ZNK17QHeightFieldShape6sourceEv@Qt_6_PRIVATE_API 6.6.1
 _ZNK17QHeightFieldShape7extentsEv@Qt_6_PRIVATE_API 6.6.1
 _ZNK18QTriangleMeshShape10metaObjectEv@Qt_6_PRIVATE_API 6.6.1
 _ZNK18QTriangleMeshShape6sourceEv@Qt_6_PRIVATE_API 6.6.1
 _ZNK20QAbstractPhysicsNode10metaObjectEv@Qt_6_PRIVATE_API 6.6.1
 _ZNK20QAbstractPhysicsNode18sendContactReportsEv@Qt_6_PRIVATE_API 6.6.1
 _ZNK20QAbstractPhysicsNode18sendTriggerReportsEv@Qt_6_PRIVATE_API 6.6.1
 _ZNK20QAbstractPhysicsNode21receiveContactReportsEv@Qt_6_PRIVATE_API 6.6.1
 _ZNK20QAbstractPhysicsNode21receiveTriggerReportsEv@Qt_6_PRIVATE_API 6.6.1
 _ZNK20QAbstractPhysicsNode22getCollisionShapesListEv@Qt_6_PRIVATE_API 6.6.1
 _ZNK20QCharacterController10collisionsEv@Qt_6_PRIVATE_API 6.6.1
 _ZNK20QCharacterController10metaObjectEv@Qt_6_PRIVATE_API 6.6.1
 _ZNK20QCharacterController13midAirControlEv@Qt_6_PRIVATE_API 6.6.1
 _ZNK20QCharacterController22enableShapeHitCallbackEv@Qt_6_PRIVATE_API 6.6.1
 _ZNK20QCharacterController7gravityEv@Qt_6_PRIVATE_API 6.6.1
 _ZNK20QCharacterController8movementEv@Qt_6_PRIVATE_API 6.6.1
 _ZNK23QAbstractCollisionShape10metaObjectEv@Qt_6_PRIVATE_API 6.6.1
 _ZNK23QAbstractCollisionShape15enableDebugDrawEv@Qt_6_PRIVATE_API 6.6.1
 _ZNK5physx13BigConvexData13ComputeOffsetERKNS_6PxVec3E@Qt_6 6.6.1
 _ZNK5physx13BigConvexData20ComputeNearestOffsetERKNS_6PxVec3E@Qt_6 6.6.1
 _ZNK5physx13GuMeshFactory15getConvexMeshesEPPNS_12PxConvexMeshEjj@Qt_6 6.6.1
 _ZNK5physx13GuMeshFactory15getHeightFieldsEPPNS_13PxHeightFieldEjj@Qt_6 6.6.1
 _ZNK5physx13GuMeshFactory16getBVHStructuresEPPNS_14PxBVHStructureEjj@Qt_6 6.6.1
 _ZNK5physx13GuMeshFactory17getNbConvexMeshesEv@Qt_6 6.6.1
 _ZNK5physx13GuMeshFactory17getNbHeightFieldsEv@Qt_6 6.6.1
 _ZNK5physx13GuMeshFactory17getTriangleMeshesEPPNS_14PxTriangleMeshEjj@Qt_6 6.6.1
 _ZNK5physx13GuMeshFactory18getNbBVHStructuresEv@Qt_6 6.6.1
 _ZNK5physx13GuMeshFactory19getNbTriangleMeshesEv@Qt_6 6.6.1
 _ZNK5physx2Cm8PtrTable4findEPKv@Qt_6 6.6.1
 _ZNK5physx2Gu10ConvexMesh14getLocalBoundsEv@Qt_6 6.6.1
 _ZNK5physx2Gu10ConvexMesh14getPolygonDataEjRNS_13PxHullPolygonE@Qt_6 6.6.1
 _ZNK5physx2Gu10ConvexMesh15isGpuCompatibleEv@Qt_6 6.6.1
 _ZNK5physx2Gu10ConvexMesh17getReferenceCountEv@Qt_6 6.6.1
 _ZNK5physx2Gu10ConvexMesh18getMassInformationERfRNS_7PxMat33ERNS_6PxVec3E@Qt_6 6.6.1
 _ZNK5physx2Gu11HeightField17getReferenceCountEv@Qt_6 6.6.1
 _ZNK5physx2Gu11HeightField22computeCellCoordinatesEffRfS2_@Qt_6 6.6.1
 _ZNK5physx2Gu11HeightField22isCollisionVertexPrecaEjjjt@Qt_6 6.6.1
 _ZNK5physx2Gu11HeightField9saveCellsEPvj@Qt_6 6.6.1
 _ZNK5physx2Gu12PolygonalBox16getPolygonalDataEPNS0_13PolygonalDataE@Qt_6 6.6.1
 _ZNK5physx2Gu15HeightFieldUtil11getTriangleERKNS_11PxTransformERNS_10PxTriangleEPjS7_jbb@Qt_6 6.6.1
 _ZNK5physx2Gu15HeightFieldUtil15getVertexNormalEjjj@Qt_6 6.6.1
 _ZNK5physx2Gu15HeightFieldUtil16getEdgeFaceIndexEj@Qt_6 6.6.1
 _ZNK5physx2Gu15HeightFieldUtil16getEdgeFaceIndexEjjPKj@Qt_6 6.6.1
 _ZNK5physx2Gu15HeightFieldUtil16getEdgeFaceIndexEjjjj@Qt_6 6.6.1
 _ZNK5physx2Gu15HeightFieldUtil18computeLocalBoundsERNS_9PxBounds3E@Qt_6 6.6.1
 _ZNK5physx2Gu15HeightFieldUtil18getVertexFaceIndexEjjj@Qt_6 6.6.1
 _ZNK5physx2Gu15HeightFieldUtil20overlapAABBTrianglesERKNS_11PxTransformERKNS_9PxBounds3EjPNS0_12EntityReportIjEE@Qt_6 6.6.1
 _ZNK5physx2Gu15HeightFieldUtil22findClosestPointOnEdgeEjjjjRKNS_6PxVec3ERS2_@Qt_6 6.6.1
 _ZNK5physx2Gu15HeightFieldUtil23findClosestPointsOnCellEjjNS_6PxVec3EPS2_Pjbbb@Qt_6 6.6.1
 _ZNK5physx2Gu15HeightFieldUtil24findProjectionOnTriangleEjjjRKNS_6PxVec3ERS2_@Qt_6 6.6.1
 _ZNK5physx2Gu15HeightFieldUtil24getFaceIndexAtShapePointEff@Qt_6 6.6.1
 _ZNK5physx2Gu15HeightFieldUtil7getEdgeEjjjjRNS_6PxVec3ES3_@Qt_6 6.6.1
 _ZNK9QBoxShape10metaObjectEv@Qt_6_PRIVATE_API 6.6.1
 _ZNK9QBoxShape7extentsEv@Qt_6_PRIVATE_API 6.6.1
 _ZTI11QPlaneShape@Qt_6_PRIVATE_API 6.6.1
 _ZTI12QSphereShape@Qt_6_PRIVATE_API 6.6.1
 _ZTI12QTriggerBody@Qt_6_PRIVATE_API 6.6.1
 _ZTI13QCapsuleShape@Qt_6_PRIVATE_API 6.6.1
 _ZTI13QPhysicsWorld@Qt_6_PRIVATE_API 6.6.1
 _ZTI16QConvexMeshShape@Qt_6_PRIVATE_API 6.6.1
 _ZTI16QPhysicsMaterial@Qt_6_PRIVATE_API 6.6.1
 _ZTI16QStaticRigidBody@Qt_6_PRIVATE_API 6.6.1
 _ZTI17QDynamicRigidBody@Qt_6_PRIVATE_API 6.6.1
 _ZTI17QHeightFieldShape@Qt_6_PRIVATE_API 6.6.1
 _ZTI18QTriangleMeshShape@Qt_6_PRIVATE_API 6.6.1
 _ZTI20QAbstractPhysicsNode@Qt_6_PRIVATE_API 6.6.1
 _ZTI20QCharacterController@Qt_6_PRIVATE_API 6.6.1
 _ZTI23QAbstractCollisionShape@Qt_6_PRIVATE_API 6.6.1
 _ZTI9QBoxShape@Qt_6_PRIVATE_API 6.6.1
 _ZTIN5physx12PxFoundationE@Qt_6 6.6.1
 _ZTIN5physx13GuMeshFactoryE@Qt_6 6.6.1
 _ZTIN5physx2Cm17RadixSortBufferedE@Qt_6 6.6.1
 _ZTIN5physx2Cm9RadixSortE@Qt_6 6.6.1
 _ZTIN5physx6shdfnd10FoundationE@Qt_6 6.6.1
 _ZTIZN9QMetaType17registerConverterI5QListI9QVector3DE9QIterableI13QMetaSequenceEN9QtPrivate33QSequentialIterableConvertFunctorIS3_EEEEbT1_EUlPKvPvE_@Qt_6 6.6.1
 _ZTIZN9QMetaType17registerConverterI5QListIfE9QIterableI13QMetaSequenceEN9QtPrivate33QSequentialIterableConvertFunctorIS2_EEEEbT1_EUlPKvPvE_@Qt_6 6.6.1
 _ZTIZN9QMetaType19registerMutableViewI5QListI9QVector3DE9QIterableI13QMetaSequenceEN9QtPrivate37QSequentialIterableMutableViewFunctorIS3_EEEEbT1_EUlPvSB_E_@Qt_6 6.6.1
 _ZTIZN9QMetaType19registerMutableViewI5QListIfE9QIterableI13QMetaSequenceEN9QtPrivate37QSequentialIterableMutableViewFunctorIS2_EEEEbT1_EUlPvSA_E_@Qt_6 6.6.1
 _ZTS11QPlaneShape@Qt_6_PRIVATE_API 6.6.1
 _ZTS12QSphereShape@Qt_6_PRIVATE_API 6.6.1
 _ZTS12QTriggerBody@Qt_6_PRIVATE_API 6.6.1
 _ZTS13QCapsuleShape@Qt_6_PRIVATE_API 6.6.1
 _ZTS13QPhysicsWorld@Qt_6_PRIVATE_API 6.6.1
 _ZTS16QConvexMeshShape@Qt_6_PRIVATE_API 6.6.1
 _ZTS16QPhysicsMaterial@Qt_6_PRIVATE_API 6.6.1
 _ZTS16QStaticRigidBody@Qt_6_PRIVATE_API 6.6.1
 _ZTS17QDynamicRigidBody@Qt_6_PRIVATE_API 6.6.1
 _ZTS17QHeightFieldShape@Qt_6_PRIVATE_API 6.6.1
 _ZTS18QTriangleMeshShape@Qt_6_PRIVATE_API 6.6.1
 _ZTS20QAbstractPhysicsNode@Qt_6_PRIVATE_API 6.6.1
 _ZTS20QCharacterController@Qt_6_PRIVATE_API 6.6.1
 _ZTS23QAbstractCollisionShape@Qt_6_PRIVATE_API 6.6.1
 _ZTS9QBoxShape@Qt_6_PRIVATE_API 6.6.1
 _ZTSN5physx12PxFoundationE@Qt_6 6.6.1
 _ZTSN5physx13GuMeshFactoryE@Qt_6 6.6.1
 _ZTSN5physx2Cm17RadixSortBufferedE@Qt_6 6.6.1
 _ZTSN5physx2Cm9RadixSortE@Qt_6 6.6.1
 _ZTSN5physx6shdfnd10FoundationE@Qt_6 6.6.1
 _ZTSZN9QMetaType17registerConverterI5QListI9QVector3DE9QIterableI13QMetaSequenceEN9QtPrivate33QSequentialIterableConvertFunctorIS3_EEEEbT1_EUlPKvPvE_@Qt_6 6.6.1
 _ZTSZN9QMetaType17registerConverterI5QListIfE9QIterableI13QMetaSequenceEN9QtPrivate33QSequentialIterableConvertFunctorIS2_EEEEbT1_EUlPKvPvE_@Qt_6 6.6.1
 _ZTSZN9QMetaType19registerMutableViewI5QListI9QVector3DE9QIterableI13QMetaSequenceEN9QtPrivate37QSequentialIterableMutableViewFunctorIS3_EEEEbT1_EUlPvSB_E_@Qt_6 6.6.1
 _ZTSZN9QMetaType19registerMutableViewI5QListIfE9QIterableI13QMetaSequenceEN9QtPrivate37QSequentialIterableMutableViewFunctorIS2_EEEEbT1_EUlPvSA_E_@Qt_6 6.6.1
 _ZTV11QPlaneShape@Qt_6_PRIVATE_API 6.6.1
 _ZTV12QSphereShape@Qt_6_PRIVATE_API 6.6.1
 _ZTV12QTriggerBody@Qt_6_PRIVATE_API 6.6.1
 _ZTV13QCapsuleShape@Qt_6_PRIVATE_API 6.6.1
 _ZTV13QPhysicsWorld@Qt_6_PRIVATE_API 6.6.1
 _ZTV16QConvexMeshShape@Qt_6_PRIVATE_API 6.6.1
 _ZTV16QPhysicsMaterial@Qt_6_PRIVATE_API 6.6.1
 _ZTV16QStaticRigidBody@Qt_6_PRIVATE_API 6.6.1
 _ZTV17QDynamicRigidBody@Qt_6_PRIVATE_API 6.6.1
 _ZTV17QHeightFieldShape@Qt_6_PRIVATE_API 6.6.1
 _ZTV18QTriangleMeshShape@Qt_6_PRIVATE_API 6.6.1
 _ZTV20QAbstractPhysicsNode@Qt_6_PRIVATE_API 6.6.1
 _ZTV20QCharacterController@Qt_6_PRIVATE_API 6.6.1
 _ZTV23QAbstractCollisionShape@Qt_6_PRIVATE_API 6.6.1
 _ZTV9QBoxShape@Qt_6_PRIVATE_API 6.6.1
 _ZTVN5physx13GuMeshFactoryE@Qt_6 6.6.1
 _ZTVN5physx2Cm17RadixSortBufferedE@Qt_6 6.6.1
 _ZTVN5physx2Cm9RadixSortE@Qt_6 6.6.1
 _ZTVN5physx6shdfnd10FoundationE@Qt_6 6.6.1
 (optional=templinst)_ZZN9QMetaType21registerConverterImplI5QListI9QVector3DE9QIterableI13QMetaSequenceEEEbSt8functionIFbPKvPvEES_S_E10unregister@Qt_6 6.6.1
 (optional=templinst)_ZZN9QMetaType21registerConverterImplI5QListIfE9QIterableI13QMetaSequenceEEEbSt8functionIFbPKvPvEES_S_E10unregister@Qt_6 6.6.1
 (optional=templinst)_ZZN9QMetaType23registerMutableViewImplI5QListI9QVector3DE9QIterableI13QMetaSequenceEEEbSt8functionIFbPvS8_EES_S_E10unregister@Qt_6 6.6.1
 (optional=templinst)_ZZN9QMetaType23registerMutableViewImplI5QListIfE9QIterableI13QMetaSequenceEEEbSt8functionIFbPvS7_EES_S_E10unregister@Qt_6 6.6.1
 (c++)"non-virtual thunk to QAbstractCollisionShape::~QAbstractCollisionShape()@Qt_6_PRIVATE_API" 6.6.1
 (c++)"non-virtual thunk to QAbstractPhysicsNode::~QAbstractPhysicsNode()@Qt_6_PRIVATE_API" 6.6.1
 (c++)"non-virtual thunk to QBoxShape::~QBoxShape()@Qt_6_PRIVATE_API" 6.6.1
 (c++)"non-virtual thunk to QCapsuleShape::~QCapsuleShape()@Qt_6_PRIVATE_API" 6.6.1
 (c++)"non-virtual thunk to QConvexMeshShape::~QConvexMeshShape()@Qt_6_PRIVATE_API" 6.6.1
 (c++)"non-virtual thunk to QDynamicRigidBody::~QDynamicRigidBody()@Qt_6_PRIVATE_API" 6.6.1
 (c++)"non-virtual thunk to QHeightFieldShape::~QHeightFieldShape()@Qt_6_PRIVATE_API" 6.6.1
 (c++)"non-virtual thunk to QPhysicsWorld::classBegin()@Qt_6_PRIVATE_API" 6.6.1
 (c++)"non-virtual thunk to QPhysicsWorld::componentComplete()@Qt_6_PRIVATE_API" 6.6.1
 (c++)"non-virtual thunk to QPhysicsWorld::~QPhysicsWorld()@Qt_6_PRIVATE_API" 6.6.1
 (c++)"non-virtual thunk to QPlaneShape::~QPlaneShape()@Qt_6_PRIVATE_API" 6.6.1
 (c++)"non-virtual thunk to QSphereShape::~QSphereShape()@Qt_6_PRIVATE_API" 6.6.1
 (c++)"non-virtual thunk to QTriangleMeshShape::~QTriangleMeshShape()@Qt_6_PRIVATE_API" 6.6.1
 (c++)"non-virtual thunk to physx::Gu::ConvexMesh::onRefCountZero()@Qt_6" 6.6.1
 (c++)"non-virtual thunk to physx::Gu::ConvexMesh::~ConvexMesh()@Qt_6" 6.6.1
 (c++)"non-virtual thunk to physx::Gu::HeightField::onRefCountZero()@Qt_6" 6.6.1
 (c++)"non-virtual thunk to physx::Gu::HeightField::~HeightField()@Qt_6" 6.6.1
